ASxxxx Linker V03.00 + NoICE + sdld,  page 1.
Hexadecimal  [32-Bits]

Area                                    Addr        Size        Decimal Bytes (Attributes)
--------------------------------        ----        ----        ------- ----- ------------
CABS                                00000000    00000000 =           0. bytes (ABS,CON,CODE)

      Value  Global                              Global Defined In Module
      -----  --------------------------------   ------------------------
C:   00000000  l_BIT_BANK                      
C:   00000000  l_CABS                          
C:   00000000  l_GSINIT1                       
C:   00000000  l_GSINIT5                       
C:   00000000  l_IABS                          
C:   00000000  l_PSEG                          
C:   00000000  l_REG_BANK_1                    
C:   00000000  l_REG_BANK_2                    
C:   00000000  l_REG_BANK_3                    
C:   00000000  l_RSEG                          
C:   00000000  l_RSEG0                         
C:   00000000  l_RSEG1                         
C:   00000000  l_XABS                          
C:   00000000  l_XINIT                         
C:   00000000  l_XISEG                         
C:   00000000  l__CODE                         
C:   00000000  s_BSEG                          
C:   00000000  s_CABS                          
C:   00000000  s_DSEG                          
C:   00000000  s_HOME                          
C:   00000000  s_IABS                          
C:   00000000  s_REG_BANK_0                    
C:   00000000  s_RSEG                          
C:   00000000  s_RSEG0                         
C:   00000000  s_RSEG1                         
C:   00000000  s_XABS                          
C:   00000001  s_PSEG                          
C:   00000001  s_XSEG                          
C:   00000002  l_BSEG_BYTES                    
C:   00000003  l_GSFINAL                       
C:   00000003  l_GSINIT0                       
C:   00000006  l_ISEG                          
C:   00000006  l_OSEG                          
C:   00000008  l_REG_BANK_0                    
C:   00000008  s_REG_BANK_1                    
C:   0000000A  l_BSEG                          
C:   0000000A  l_GSINIT2                       
C:   0000000C  l_GSINIT                        
C:   00000010  s_REG_BANK_2                    
C:   00000011  s_OSEG                          
C:   00000017  s_ISEG                          
C:   00000018  s_BIT_BANK                      
C:   00000018  s_REG_BANK_3                    
C:   00000020  s_BSEG_BYTES                    
C:   00000020  s__CODE                         
C:   00000022  l_GSINIT3                       
C:   0000002A  l_GSINIT4                       
C:   00000050  l_XSEG                          
C:   00000051  l_HOME                          
C:   00000051  s_GSINIT0                       
ASxxxx Linker V03.00 + NoICE + sdld,  page 2.
Hexadecimal  [32-Bits]

Area                                    Addr        Size        Decimal Bytes (Attributes)
--------------------------------        ----        ----        ------- ----- ------------
CABS                                00000000    00000000 =           0. bytes (ABS,CON,CODE)

      Value  Global                              Global Defined In Module
      -----  --------------------------------   ------------------------
C:   00000051  s_XISEG                         
C:   00000054  s_GSINIT1                       
C:   00000054  s_GSINIT2                       
C:   0000005E  s_GSINIT3                       
C:   0000006F  s_SSEG                          
C:   0000007D  l_DSEG                          
C:   00000080  s_GSINIT4                       
C:   00000091  l_SSEG                          
C:   000000AA  s_GSINIT                        
C:   000000AA  s_GSINIT5                       
C:   000000B6  s_GSFINAL                       
C:   000000B9  s_CSEG                          
C:   00000100  l_IRAM                          
C:   00000145  l_CONST                         
C:   000014B2  l_CSEG                          
C:   0000156B  s_CONST                         
C:   000016B0  s_XINIT                         

ASxxxx Linker V03.00 + NoICE + sdld,  page 3.
Hexadecimal  [32-Bits]

Area                                    Addr        Size        Decimal Bytes (Attributes)
--------------------------------        ----        ----        ------- ----- ------------
.  .ABS.                            00000000    00000000 =           0. bytes (ABS,CON)

      Value  Global                              Global Defined In Module
      -----  --------------------------------   ------------------------
     00000000  .__.ABS.                           _fsget1arg
     00000080  G$P0$0$0                           Squiggles
     00000080  G$P0_0$0$0                         Squiggles
     00000080  _P0                                Squiggles
     00000080  _P0_0                              Squiggles
     00000081  G$P0_1$0$0                         Squiggles
     00000081  G$SP$0$0                           Squiggles
     00000081  _P0_1                              Squiggles
     00000081  _SP                                Squiggles
     00000082  G$DPL$0$0                          Squiggles
     00000082  G$P0_2$0$0                         Squiggles
     00000082  _DPL                               Squiggles
     00000082  _P0_2                              Squiggles
     00000083  G$BUS_SCL$0$0                      Squiggles
     00000083  G$DPH$0$0                          Squiggles
     00000083  G$P0_3$0$0                         Squiggles
     00000083  _BUS_SCL                           Squiggles
     00000083  _DPH                               Squiggles
     00000083  _P0_3                              Squiggles
     00000084  G$P0_4$0$0                         Squiggles
     00000084  G$P4$0$0                           Squiggles
     00000084  _P0_4                              Squiggles
     00000084  _P4                                Squiggles
     00000085  G$P0_5$0$0                         Squiggles
     00000085  G$P5$0$0                           Squiggles
     00000085  _P0_5                              Squiggles
     00000085  _P5                                Squiggles
     00000086  G$P0_6$0$0                         Squiggles
     00000086  G$P6$0$0                           Squiggles
     00000086  _P0_6                              Squiggles
     00000086  _P6                                Squiggles
     00000087  G$P0_7$0$0                         Squiggles
     00000087  G$PCON$0$0                         Squiggles
     00000087  _P0_7                              Squiggles
     00000087  _PCON                              Squiggles
     00000088  G$IT0$0$0                          Squiggles
     00000088  G$TCON$0$0                         Squiggles
     00000088  _IT0                               Squiggles
     00000088  _TCON                              Squiggles
     00000089  G$IE0$0$0                          Squiggles
     00000089  G$TMOD$0$0                         Squiggles
     00000089  _IE0                               Squiggles
     00000089  _TMOD                              Squiggles
     0000008A  G$IT1$0$0                          Squiggles
     0000008A  G$TL0$0$0                          Squiggles
     0000008A  _IT1                               Squiggles
     0000008A  _TL0                               Squiggles
     0000008B  G$IE1$0$0                          Squiggles
     0000008B  G$TL1$0$0                          Squiggles
     0000008B  _IE1                               Squiggles
ASxxxx Linker V03.00 + NoICE + sdld,  page 4.
Hexadecimal  [32-Bits]

Area                                    Addr        Size        Decimal Bytes (Attributes)
--------------------------------        ----        ----        ------- ----- ------------
.  .ABS.                            00000000    00000000 =           0. bytes (ABS,CON)

      Value  Global                              Global Defined In Module
      -----  --------------------------------   ------------------------
     0000008B  _TL1                               Squiggles
     0000008C  G$TH0$0$0                          Squiggles
     0000008C  G$TR0$0$0                          Squiggles
     0000008C  _TH0                               Squiggles
     0000008C  _TR0                               Squiggles
     0000008D  G$TF0$0$0                          Squiggles
     0000008D  G$TH1$0$0                          Squiggles
     0000008D  _TF0                               Squiggles
     0000008D  _TH1                               Squiggles
     0000008E  G$CKCON$0$0                        Squiggles
     0000008E  G$TR1$0$0                          Squiggles
     0000008E  _CKCON                             Squiggles
     0000008E  _TR1                               Squiggles
     0000008F  G$PSCTL$0$0                        Squiggles
     0000008F  G$TF1$0$0                          Squiggles
     0000008F  _PSCTL                             Squiggles
     0000008F  _TF1                               Squiggles
     00000090  G$P1$0$0                           Squiggles
     00000090  G$P1_0$0$0                         Squiggles
     00000090  _P1                                Squiggles
     00000090  _P1_0                              Squiggles
     00000091  G$P1_1$0$0                         Squiggles
     00000091  G$TMR3CN$0$0                       Squiggles
     00000091  _P1_1                              Squiggles
     00000091  _TMR3CN                            Squiggles
     00000092  G$P1_2$0$0                         Squiggles
     00000092  G$TMR3RLL$0$0                      Squiggles
     00000092  _P1_2                              Squiggles
     00000092  _TMR3RLL                           Squiggles
     00000093  G$P1_3$0$0                         Squiggles
     00000093  G$TMR3RLH$0$0                      Squiggles
     00000093  _P1_3                              Squiggles
     00000093  _TMR3RLH                           Squiggles
     00000094  G$P1_4$0$0                         Squiggles
     00000094  G$TMR3L$0$0                        Squiggles
     00000094  _P1_4                              Squiggles
     00000094  _TMR3L                             Squiggles
     00000095  G$P1_5$0$0                         Squiggles
     00000095  G$TMR3H$0$0                        Squiggles
     00000095  _P1_5                              Squiggles
     00000095  _TMR3H                             Squiggles
     00000096  G$P1_6$0$0                         Squiggles
     00000096  G$P7$0$0                           Squiggles
     00000096  _P1_6                              Squiggles
     00000096  _P7                                Squiggles
     00000097  G$P1_7$0$0                         Squiggles
     00000097  _P1_7                              Squiggles
     00000098  G$RI$0$0                           Squiggles
     00000098  G$RI0$0$0                          Squiggles
     00000098  G$SCON$0$0                         Squiggles
     00000098  G$SCON0$0$0                        Squiggles
ASxxxx Linker V03.00 + NoICE + sdld,  page 5.
Hexadecimal  [32-Bits]

Area                                    Addr        Size        Decimal Bytes (Attributes)
--------------------------------        ----        ----        ------- ----- ------------
.  .ABS.                            00000000    00000000 =           0. bytes (ABS,CON)

      Value  Global                              Global Defined In Module
      -----  --------------------------------   ------------------------
     00000098  _RI                                Squiggles
     00000098  _RI0                               Squiggles
     00000098  _SCON                              Squiggles
     00000098  _SCON0                             Squiggles
     00000099  G$SBUF$0$0                         Squiggles
     00000099  G$SBUF0$0$0                        Squiggles
     00000099  G$TI$0$0                           Squiggles
     00000099  G$TI0$0$0                          Squiggles
     00000099  _SBUF                              Squiggles
     00000099  _SBUF0                             Squiggles
     00000099  _TI                                Squiggles
     00000099  _TI0                               Squiggles
     0000009A  G$RB8$0$0                          Squiggles
     0000009A  G$RB80$0$0                         Squiggles
     0000009A  G$SPI0CFG$0$0                      Squiggles
     0000009A  _RB8                               Squiggles
     0000009A  _RB80                              Squiggles
     0000009A  _SPI0CFG                           Squiggles
     0000009B  G$SPI0DAT$0$0                      Squiggles
     0000009B  G$TB8$0$0                          Squiggles
     0000009B  G$TB80$0$0                         Squiggles
     0000009B  _SPI0DAT                           Squiggles
     0000009B  _TB8                               Squiggles
     0000009B  _TB80                              Squiggles
     0000009C  G$ADC1$0$0                         Squiggles
     0000009C  G$REN$0$0                          Squiggles
     0000009C  G$REN0$0$0                         Squiggles
     0000009C  _ADC1                              Squiggles
     0000009C  _REN                               Squiggles
     0000009C  _REN0                              Squiggles
     0000009D  G$MCE0$0$0                         Squiggles
     0000009D  G$SM2$0$0                          Squiggles
     0000009D  G$SM20$0$0                         Squiggles
     0000009D  G$SPI0CKR$0$0                      Squiggles
     0000009D  _MCE0                              Squiggles
     0000009D  _SM2                               Squiggles
     0000009D  _SM20                              Squiggles
     0000009D  _SPI0CKR                           Squiggles
     0000009E  G$CPT0CN$0$0                       Squiggles
     0000009E  G$SM1$0$0                          Squiggles
     0000009E  G$SM10$0$0                         Squiggles
     0000009E  _CPT0CN                            Squiggles
     0000009E  _SM1                               Squiggles
     0000009E  _SM10                              Squiggles
     0000009F  G$CPT1CN$0$0                       Squiggles
     0000009F  G$S0MODE$0$0                       Squiggles
     0000009F  G$SM0$0$0                          Squiggles
     0000009F  G$SM00$0$0                         Squiggles
     0000009F  _CPT1CN                            Squiggles
     0000009F  _S0MODE                            Squiggles
     0000009F  _SM0                               Squiggles
ASxxxx Linker V03.00 + NoICE + sdld,  page 6.
Hexadecimal  [32-Bits]

Area                                    Addr        Size        Decimal Bytes (Attributes)
--------------------------------        ----        ----        ------- ----- ------------
.  .ABS.                            00000000    00000000 =           0. bytes (ABS,CON)

      Value  Global                              Global Defined In Module
      -----  --------------------------------   ------------------------
     0000009F  _SM00                              Squiggles
     000000A0  G$P2$0$0                           Squiggles
     000000A0  G$P2_0$0$0                         Squiggles
     000000A0  _P2                                Squiggles
     000000A0  _P2_0                              Squiggles
     000000A1  G$EMI0TC$0$0                       Squiggles
     000000A1  G$P2_1$0$0                         Squiggles
     000000A1  _EMI0TC                            Squiggles
     000000A1  _P2_1                              Squiggles
     000000A2  G$P2_2$0$0                         Squiggles
     000000A2  _P2_2                              Squiggles
     000000A3  G$EMI0CF$0$0                       Squiggles
     000000A3  G$P2_3$0$0                         Squiggles
     000000A3  _EMI0CF                            Squiggles
     000000A3  _P2_3                              Squiggles
     000000A4  G$P0MDOUT$0$0                      Squiggles
     000000A4  G$P2_4$0$0                         Squiggles
     000000A4  G$PRT0CF$0$0                       Squiggles
     000000A4  _P0MDOUT                           Squiggles
     000000A4  _P2_4                              Squiggles
     000000A4  _PRT0CF                            Squiggles
     000000A5  G$P1MDOUT$0$0                      Squiggles
     000000A5  G$P2_5$0$0                         Squiggles
     000000A5  G$PRT1CF$0$0                       Squiggles
     000000A5  _P1MDOUT                           Squiggles
     000000A5  _P2_5                              Squiggles
     000000A5  _PRT1CF                            Squiggles
     000000A6  G$P2MDOUT$0$0                      Squiggles
     000000A6  G$P2_6$0$0                         Squiggles
     000000A6  G$PRT2CF$0$0                       Squiggles
     000000A6  _P2MDOUT                           Squiggles
     000000A6  _P2_6                              Squiggles
     000000A6  _PRT2CF                            Squiggles
     000000A7  G$P2_7$0$0                         Squiggles
     000000A7  G$P3MDOUT$0$0                      Squiggles
     000000A7  G$PRT3CF$0$0                       Squiggles
     000000A7  _P2_7                              Squiggles
     000000A7  _P3MDOUT                           Squiggles
     000000A7  _PRT3CF                            Squiggles
     000000A8  G$EX0$0$0                          Squiggles
     000000A8  G$IE$0$0                           Squiggles
     000000A8  _EX0                               Squiggles
     000000A8  _IE                                Squiggles
     000000A9  G$ET0$0$0                          Squiggles
     000000A9  G$SADDR0$0$0                       Squiggles
     000000A9  _ET0                               Squiggles
     000000A9  _SADDR0                            Squiggles
     000000AA  G$ADC1CN$0$0                       Squiggles
     000000AA  G$EX1$0$0                          Squiggles
     000000AA  _ADC1CN                            Squiggles
     000000AA  _EX1                               Squiggles
ASxxxx Linker V03.00 + NoICE + sdld,  page 7.
Hexadecimal  [32-Bits]

Area                                    Addr        Size        Decimal Bytes (Attributes)
--------------------------------        ----        ----        ------- ----- ------------
.  .ABS.                            00000000    00000000 =           0. bytes (ABS,CON)

      Value  Global                              Global Defined In Module
      -----  --------------------------------   ------------------------
     000000AB  G$ADC1CF$0$0                       Squiggles
     000000AB  G$ET1$0$0                          Squiggles
     000000AB  _ADC1CF                            Squiggles
     000000AB  _ET1                               Squiggles
     000000AC  G$AMX1SL$0$0                       Squiggles
     000000AC  G$ES$0$0                           Squiggles
     000000AC  G$ES0$0$0                          Squiggles
     000000AC  _AMX1SL                            Squiggles
     000000AC  _ES                                Squiggles
     000000AC  _ES0                               Squiggles
     000000AD  G$ET2$0$0                          Squiggles
     000000AD  G$P3IF$0$0                         Squiggles
     000000AD  _ET2                               Squiggles
     000000AD  _P3IF                              Squiggles
     000000AE  G$SADEN1$0$0                       Squiggles
     000000AE  _SADEN1                            Squiggles
     000000AF  G$EA$0$0                           Squiggles
     000000AF  G$EMI0CN$0$0                       Squiggles
     000000AF  G$_XPAGE$0$0                       Squiggles
     000000AF  _EA                                Squiggles
     000000AF  _EMI0CN                            Squiggles
     000000AF  __XPAGE                            Squiggles
     000000B0  G$P3$0$0                           Squiggles
     000000B0  G$P3_0$0$0                         Squiggles
     000000B0  _P3                                Squiggles
     000000B0  _P3_0                              Squiggles
     000000B1  G$OSCXCN$0$0                       Squiggles
     000000B1  G$P3_1$0$0                         Squiggles
     000000B1  _OSCXCN                            Squiggles
     000000B1  _P3_1                              Squiggles
     000000B2  G$OSCICN$0$0                       Squiggles
     000000B2  G$P3_2$0$0                         Squiggles
     000000B2  _OSCICN                            Squiggles
     000000B2  _P3_2                              Squiggles
     000000B3  G$P3_3$0$0                         Squiggles
     000000B3  _P3_3                              Squiggles
     000000B4  G$P3_4$0$0                         Squiggles
     000000B4  _P3_4                              Squiggles
     000000B5  G$P3_5$0$0                         Squiggles
     000000B5  G$P74OUT$0$0                       Squiggles
     000000B5  _P3_5                              Squiggles
     000000B5  _P74OUT                            Squiggles
     000000B6  G$FLSCL$0$0                        Squiggles
     000000B6  G$P3_6$0$0                         Squiggles
     000000B6  G$RANGER_SWITCH$0$0                Squiggles
     000000B6  _FLSCL                             Squiggles
     000000B6  _P3_6                              Squiggles
     000000B6  _RANGER_SWITCH                     Squiggles
     000000B7  G$COMPASS_SWITCH$0$0               Squiggles
     000000B7  G$FLACL$0$0                        Squiggles
     000000B7  G$P3_7$0$0                         Squiggles
ASxxxx Linker V03.00 + NoICE + sdld,  page 8.
Hexadecimal  [32-Bits]

Area                                    Addr        Size        Decimal Bytes (Attributes)
--------------------------------        ----        ----        ------- ----- ------------
.  .ABS.                            00000000    00000000 =           0. bytes (ABS,CON)

      Value  Global                              Global Defined In Module
      -----  --------------------------------   ------------------------
     000000B7  _COMPASS_SWITCH                    Squiggles
     000000B7  _FLACL                             Squiggles
     000000B7  _P3_7                              Squiggles
     000000B8  G$IP$0$0                           Squiggles
     000000B8  G$PX0$0$0                          Squiggles
     000000B8  _IP                                Squiggles
     000000B8  _PX0                               Squiggles
     000000B9  G$PT0$0$0                          Squiggles
     000000B9  G$SADEN0$0$0                       Squiggles
     000000B9  _PT0                               Squiggles
     000000B9  _SADEN0                            Squiggles
     000000BA  G$AMX0CF$0$0                       Squiggles
     000000BA  G$PX1$0$0                          Squiggles
     000000BA  _AMX0CF                            Squiggles
     000000BA  _PX1                               Squiggles
     000000BB  G$AMX0SL$0$0                       Squiggles
     000000BB  G$PT1$0$0                          Squiggles
     000000BB  _AMX0SL                            Squiggles
     000000BB  _PT1                               Squiggles
     000000BC  G$ADC0CF$0$0                       Squiggles
     000000BC  G$PS$0$0                           Squiggles
     000000BC  G$PS0$0$0                          Squiggles
     000000BC  _ADC0CF                            Squiggles
     000000BC  _PS                                Squiggles
     000000BC  _PS0                               Squiggles
     000000BD  G$P1MDIN$0$0                       Squiggles
     000000BD  G$PT2$0$0                          Squiggles
     000000BD  _P1MDIN                            Squiggles
     000000BD  _PT2                               Squiggles
     000000BE  G$ADC0L$0$0                        Squiggles
     000000BE  _ADC0L                             Squiggles
     000000BF  G$ADC0H$0$0                        Squiggles
     000000BF  _ADC0H                             Squiggles
     000000C0  G$BUS_TOE$0$0                      Squiggles
     000000C0  G$SMB0CN$0$0                       Squiggles
     000000C0  G$SMBTOE$0$0                       Squiggles
     000000C0  _BUS_TOE                           Squiggles
     000000C0  _SMB0CN                            Squiggles
     000000C0  _SMBTOE                            Squiggles
     000000C1  G$BUS_FTE$0$0                      Squiggles
     000000C1  G$SMB0STA$0$0                      Squiggles
     000000C1  G$SMBFTE$0$0                       Squiggles
     000000C1  _BUS_FTE                           Squiggles
     000000C1  _SMB0STA                           Squiggles
     000000C1  _SMBFTE                            Squiggles
     000000C2  G$AA$0$0                           Squiggles
     000000C2  G$BUS_AA$0$0                       Squiggles
     000000C2  G$SMB0DAT$0$0                      Squiggles
     000000C2  _AA                                Squiggles
     000000C2  _BUS_AA                            Squiggles
     000000C2  _SMB0DAT                           Squiggles
ASxxxx Linker V03.00 + NoICE + sdld,  page 9.
Hexadecimal  [32-Bits]

Area                                    Addr        Size        Decimal Bytes (Attributes)
--------------------------------        ----        ----        ------- ----- ------------
.  .ABS.                            00000000    00000000 =           0. bytes (ABS,CON)

      Value  Global                              Global Defined In Module
      -----  --------------------------------   ------------------------
     000000C3  G$BUS_INT$0$0                      Squiggles
     000000C3  G$SI$0$0                           Squiggles
     000000C3  G$SMB0ADR$0$0                      Squiggles
     000000C3  _BUS_INT                           Squiggles
     000000C3  _SI                                Squiggles
     000000C3  _SMB0ADR                           Squiggles
     000000C4  G$ADC0GTL$0$0                      Squiggles
     000000C4  G$BUS_STOP$0$0                     Squiggles
     000000C4  G$STO$0$0                          Squiggles
     000000C4  _ADC0GTL                           Squiggles
     000000C4  _BUS_STOP                          Squiggles
     000000C4  _STO                               Squiggles
     000000C5  G$ADC0GTH$0$0                      Squiggles
     000000C5  G$BUS_START$0$0                    Squiggles
     000000C5  G$STA$0$0                          Squiggles
     000000C5  _ADC0GTH                           Squiggles
     000000C5  _BUS_START                         Squiggles
     000000C5  _STA                               Squiggles
     000000C6  G$ADC0LTL$0$0                      Squiggles
     000000C6  G$BUS_EN$0$0                       Squiggles
     000000C6  G$ENSMB$0$0                        Squiggles
     000000C6  _ADC0LTL                           Squiggles
     000000C6  _BUS_EN                            Squiggles
     000000C6  _ENSMB                             Squiggles
     000000C7  G$ADC0LTH$0$0                      Squiggles
     000000C7  G$BUSY$0$0                         Squiggles
     000000C7  G$BUS_BUSY$0$0                     Squiggles
     000000C7  _ADC0LTH                           Squiggles
     000000C7  _BUSY                              Squiggles
     000000C7  _BUS_BUSY                          Squiggles
     000000C8  G$CPRL2$0$0                        Squiggles
     000000C8  G$T2CON$0$0                        Squiggles
     000000C8  _CPRL2                             Squiggles
     000000C8  _T2CON                             Squiggles
     000000C9  G$CT2$0$0                          Squiggles
     000000C9  G$T4CON$0$0                        Squiggles
     000000C9  _CT2                               Squiggles
     000000C9  _T4CON                             Squiggles
     000000CA  G$RCAP2L$0$0                       Squiggles
     000000CA  G$TR2$0$0                          Squiggles
     000000CA  _RCAP2L                            Squiggles
     000000CA  _TR2                               Squiggles
     000000CB  G$EXEN2$0$0                        Squiggles
     000000CB  G$RCAP2H$0$0                       Squiggles
     000000CB  _EXEN2                             Squiggles
     000000CB  _RCAP2H                            Squiggles
     000000CC  G$TCLK$0$0                         Squiggles
     000000CC  G$TL2$0$0                          Squiggles
     000000CC  _TCLK                              Squiggles
     000000CC  _TL2                               Squiggles
     000000CD  G$RCLK$0$0                         Squiggles
ASxxxx Linker V03.00 + NoICE + sdld,  page 10.
Hexadecimal  [32-Bits]

Area                                    Addr        Size        Decimal Bytes (Attributes)
--------------------------------        ----        ----        ------- ----- ------------
.  .ABS.                            00000000    00000000 =           0. bytes (ABS,CON)

      Value  Global                              Global Defined In Module
      -----  --------------------------------   ------------------------
     000000CD  G$TH2$0$0                          Squiggles
     000000CD  _RCLK                              Squiggles
     000000CD  _TH2                               Squiggles
     000000CE  G$EXF2$0$0                         Squiggles
     000000CE  _EXF2                              Squiggles
     000000CF  G$SMB0CR$0$0                       Squiggles
     000000CF  G$TF2$0$0                          Squiggles
     000000CF  _SMB0CR                            Squiggles
     000000CF  _TF2                               Squiggles
     000000D0  G$P$0$0                            Squiggles
     000000D0  G$PSW$0$0                          Squiggles
     000000D0  _P                                 Squiggles
     000000D0  _PSW                               Squiggles
     000000D1  G$F1$0$0                           Squiggles
     000000D1  G$REF0CN$0$0                       Squiggles
     000000D1  _F1                                Squiggles
     000000D1  _REF0CN                            Squiggles
     000000D2  G$DAC0L$0$0                        Squiggles
     000000D2  G$OV$0$0                           Squiggles
     000000D2  _DAC0L                             Squiggles
     000000D2  _OV                                Squiggles
     000000D3  G$DAC0H$0$0                        Squiggles
     000000D3  G$RS0$0$0                          Squiggles
     000000D3  _DAC0H                             Squiggles
     000000D3  _RS0                               Squiggles
     000000D4  G$DAC0CN$0$0                       Squiggles
     000000D4  G$RS1$0$0                          Squiggles
     000000D4  _DAC0CN                            Squiggles
     000000D4  _RS1                               Squiggles
     000000D5  G$DAC1L$0$0                        Squiggles
     000000D5  G$F0$0$0                           Squiggles
     000000D5  _DAC1L                             Squiggles
     000000D5  _F0                                Squiggles
     000000D6  G$AC$0$0                           Squiggles
     000000D6  G$DAC1H$0$0                        Squiggles
     000000D6  _AC                                Squiggles
     000000D6  _DAC1H                             Squiggles
     000000D7  G$CY$0$0                           Squiggles
     000000D7  G$DAC1CN$0$0                       Squiggles
     000000D7  _CY                                Squiggles
     000000D7  _DAC1CN                            Squiggles
     000000D8  G$CCF0$0$0                         Squiggles
     000000D8  G$PCA0CN$0$0                       Squiggles
     000000D8  _CCF0                              Squiggles
     000000D8  _PCA0CN                            Squiggles
     000000D9  G$CCF1$0$0                         Squiggles
     000000D9  G$PCA0MD$0$0                       Squiggles
     000000D9  _CCF1                              Squiggles
     000000D9  _PCA0MD                            Squiggles
     000000DA  G$CCF2$0$0                         Squiggles
     000000DA  G$PCA0CPM0$0$0                     Squiggles
ASxxxx Linker V03.00 + NoICE + sdld,  page 11.
Hexadecimal  [32-Bits]

Area                                    Addr        Size        Decimal Bytes (Attributes)
--------------------------------        ----        ----        ------- ----- ------------
.  .ABS.                            00000000    00000000 =           0. bytes (ABS,CON)

      Value  Global                              Global Defined In Module
      -----  --------------------------------   ------------------------
     000000DA  _CCF2                              Squiggles
     000000DA  _PCA0CPM0                          Squiggles
     000000DB  G$CCF3$0$0                         Squiggles
     000000DB  G$PCA0CPM1$0$0                     Squiggles
     000000DB  _CCF3                              Squiggles
     000000DB  _PCA0CPM1                          Squiggles
     000000DC  G$CCF4$0$0                         Squiggles
     000000DC  G$PCA0CPM2$0$0                     Squiggles
     000000DC  _CCF4                              Squiggles
     000000DC  _PCA0CPM2                          Squiggles
     000000DD  G$PCA0CPM3$0$0                     Squiggles
     000000DD  _PCA0CPM3                          Squiggles
     000000DE  G$CR$0$0                           Squiggles
     000000DE  G$PCA0CPM4$0$0                     Squiggles
     000000DE  _CR                                Squiggles
     000000DE  _PCA0CPM4                          Squiggles
     000000DF  G$CF$0$0                           Squiggles
     000000DF  _CF                                Squiggles
     000000E0  G$ACC$0$0                          Squiggles
     000000E0  _ACC                               Squiggles
     000000E1  G$XBR0$0$0                         Squiggles
     000000E1  _XBR0                              Squiggles
     000000E2  G$XBR1$0$0                         Squiggles
     000000E2  _XBR1                              Squiggles
     000000E3  G$XBR2$0$0                         Squiggles
     000000E3  _XBR2                              Squiggles
     000000E4  G$RCAP4L$0$0                       Squiggles
     000000E4  _RCAP4L                            Squiggles
     000000E5  G$RCAP4H$0$0                       Squiggles
     000000E5  _RCAP4H                            Squiggles
     000000E6  G$EIE1$0$0                         Squiggles
     000000E6  _EIE1                              Squiggles
     000000E7  G$EIE2$0$0                         Squiggles
     000000E7  _EIE2                              Squiggles
     000000E8  G$AD0LJST$0$0                      Squiggles
     000000E8  G$ADC0CN$0$0                       Squiggles
     000000E8  G$ADLJST$0$0                       Squiggles
     000000E8  _AD0LJST                           Squiggles
     000000E8  _ADC0CN                            Squiggles
     000000E8  _ADLJST                            Squiggles
     000000E9  G$AD0WINT$0$0                      Squiggles
     000000E9  G$ADWINT$0$0                       Squiggles
     000000E9  G$PCA0L$0$0                        Squiggles
     000000E9  _AD0WINT                           Squiggles
     000000E9  _ADWINT                            Squiggles
     000000E9  _PCA0L                             Squiggles
     000000EA  G$AD0CM0$0$0                       Squiggles
     000000EA  G$ADSTM0$0$0                       Squiggles
     000000EA  G$PCA0CPL0$0$0                     Squiggles
     000000EA  _AD0CM0                            Squiggles
     000000EA  _ADSTM0                            Squiggles
ASxxxx Linker V03.00 + NoICE + sdld,  page 12.
Hexadecimal  [32-Bits]

Area                                    Addr        Size        Decimal Bytes (Attributes)
--------------------------------        ----        ----        ------- ----- ------------
.  .ABS.                            00000000    00000000 =           0. bytes (ABS,CON)

      Value  Global                              Global Defined In Module
      -----  --------------------------------   ------------------------
     000000EA  _PCA0CPL0                          Squiggles
     000000EB  G$AD0CM1$0$0                       Squiggles
     000000EB  G$ADSTM1$0$0                       Squiggles
     000000EB  G$PCA0CPL1$0$0                     Squiggles
     000000EB  _AD0CM1                            Squiggles
     000000EB  _ADSTM1                            Squiggles
     000000EB  _PCA0CPL1                          Squiggles
     000000EC  G$AD0BUSY$0$0                      Squiggles
     000000EC  G$ADBUSY$0$0                       Squiggles
     000000EC  G$PCA0CPL2$0$0                     Squiggles
     000000EC  _AD0BUSY                           Squiggles
     000000EC  _ADBUSY                            Squiggles
     000000EC  _PCA0CPL2                          Squiggles
     000000ED  G$AD0INT$0$0                       Squiggles
     000000ED  G$ADCINT$0$0                       Squiggles
     000000ED  G$PCA0CPL3$0$0                     Squiggles
     000000ED  _AD0INT                            Squiggles
     000000ED  _ADCINT                            Squiggles
     000000ED  _PCA0CPL3                          Squiggles
     000000EE  G$AD0TM$0$0                        Squiggles
     000000EE  G$ADCTM$0$0                        Squiggles
     000000EE  G$PCA0CPL4$0$0                     Squiggles
     000000EE  _AD0TM                             Squiggles
     000000EE  _ADCTM                             Squiggles
     000000EE  _PCA0CPL4                          Squiggles
     000000EF  G$AD0EN$0$0                        Squiggles
     000000EF  G$ADCEN$0$0                        Squiggles
     000000EF  G$RSTSRC$0$0                       Squiggles
     000000EF  _AD0EN                             Squiggles
     000000EF  _ADCEN                             Squiggles
     000000EF  _RSTSRC                            Squiggles
     000000F0  G$B$0$0                            Squiggles
     000000F0  _B                                 Squiggles
     000000F1  G$SCON1$0$0                        Squiggles
     000000F1  _SCON1                             Squiggles
     000000F2  G$SBUF1$0$0                        Squiggles
     000000F2  _SBUF1                             Squiggles
     000000F3  G$SADDR1$0$0                       Squiggles
     000000F3  _SADDR1                            Squiggles
     000000F4  G$TL4$0$0                          Squiggles
     000000F4  _TL4                               Squiggles
     000000F5  G$TH4$0$0                          Squiggles
     000000F5  _B_5                               _gptrget
     000000F5  _TH4                               Squiggles
     000000F6  G$EIP1$0$0                         Squiggles
     000000F6  _B_6                               _gptrget
     000000F6  _EIP1                              Squiggles
     000000F7  G$EIP2$0$0                         Squiggles
     000000F7  _B_7                               _gptrget
     000000F7  _EIP2                              Squiggles
     000000F8  G$SPI0CN$0$0                       Squiggles
ASxxxx Linker V03.00 + NoICE + sdld,  page 13.
Hexadecimal  [32-Bits]

Area                                    Addr        Size        Decimal Bytes (Attributes)
--------------------------------        ----        ----        ------- ----- ------------
.  .ABS.                            00000000    00000000 =           0. bytes (ABS,CON)

      Value  Global                              Global Defined In Module
      -----  --------------------------------   ------------------------
     000000F8  G$SPIEN$0$0                        Squiggles
     000000F8  _SPI0CN                            Squiggles
     000000F8  _SPIEN                             Squiggles
     000000F9  G$MSTEN$0$0                        Squiggles
     000000F9  G$PCA0H$0$0                        Squiggles
     000000F9  _MSTEN                             Squiggles
     000000F9  _PCA0H                             Squiggles
     000000FA  G$PCA0CPH0$0$0                     Squiggles
     000000FA  G$SLVSEL$0$0                       Squiggles
     000000FA  _PCA0CPH0                          Squiggles
     000000FA  _SLVSEL                            Squiggles
     000000FB  G$PCA0CPH1$0$0                     Squiggles
     000000FB  G$TXBSY$0$0                        Squiggles
     000000FB  _PCA0CPH1                          Squiggles
     000000FB  _TXBSY                             Squiggles
     000000FC  G$PCA0CPH2$0$0                     Squiggles
     000000FC  G$RXOVRN$0$0                       Squiggles
     000000FC  _PCA0CPH2                          Squiggles
     000000FC  _RXOVRN                            Squiggles
     000000FD  G$MODF$0$0                         Squiggles
     000000FD  G$PCA0CPH3$0$0                     Squiggles
     000000FD  _MODF                              Squiggles
     000000FD  _PCA0CPH3                          Squiggles
     000000FE  G$PCA0CPH4$0$0                     Squiggles
     000000FE  G$WCOL$0$0                         Squiggles
     000000FE  _PCA0CPH4                          Squiggles
     000000FE  _WCOL                              Squiggles
     000000FF  G$SPIF$0$0                         Squiggles
     000000FF  G$WDTCN$0$0                        Squiggles
     000000FF  _SPIF                              Squiggles
     000000FF  _WDTCN                             Squiggles
     00008C8A  G$TMR0$0$0                         Squiggles
     00008C8A  _TMR0                              Squiggles
     00008D8B  G$TMR1$0$0                         Squiggles
     00008D8B  _TMR1                              Squiggles
     00009392  G$TMR3RL$0$0                       Squiggles
     00009392  _TMR3RL                            Squiggles
     00009594  G$TMR3$0$0                         Squiggles
     00009594  _TMR3                              Squiggles
     0000BFBE  G$ADC0$0$0                         Squiggles
     0000BFBE  _ADC0                              Squiggles
     0000C5C4  G$ADC0GT$0$0                       Squiggles
     0000C5C4  _ADC0GT                            Squiggles
     0000C7C6  G$ADC0LT$0$0                       Squiggles
     0000C7C6  _ADC0LT                            Squiggles
     0000CBCA  G$RCAP2$0$0                        Squiggles
     0000CBCA  _RCAP2                             Squiggles
     0000CDCC  G$TMR2$0$0                         Squiggles
     0000CDCC  _TMR2                              Squiggles
     0000D3D2  G$DAC0$0$0                         Squiggles
     0000D3D2  _DAC0                              Squiggles
ASxxxx Linker V03.00 + NoICE + sdld,  page 14.
Hexadecimal  [32-Bits]

Area                                    Addr        Size        Decimal Bytes (Attributes)
--------------------------------        ----        ----        ------- ----- ------------
.  .ABS.                            00000000    00000000 =           0. bytes (ABS,CON)

      Value  Global                              Global Defined In Module
      -----  --------------------------------   ------------------------
     0000D6D5  G$DAC1$0$0                         Squiggles
     0000D6D5  _DAC1                              Squiggles
     0000E5E4  G$RCAP4$0$0                        Squiggles
     0000E5E4  _RCAP4                             Squiggles
     0000F5F4  G$TMR4$0$0                         Squiggles
     0000F5F4  _TMR4                              Squiggles
     0000F9E9  G$PCA0$0$0                         Squiggles
     0000F9E9  _PCA0                              Squiggles
     0000FAEA  G$PCA0CP0$0$0                      Squiggles
     0000FAEA  _PCA0CP0                           Squiggles
     0000FBEB  G$PCA0CP1$0$0                      Squiggles
     0000FBEB  _PCA0CP1                           Squiggles
     0000FCEC  G$PCA0CP2$0$0                      Squiggles
     0000FCEC  _PCA0CP2                           Squiggles
     0000FDED  G$PCA0CP3$0$0                      Squiggles
     0000FDED  _PCA0CP3                           Squiggles
     0000FEEE  G$PCA0CP4$0$0                      Squiggles
     0000FEEE  _PCA0CP4                           Squiggles

ASxxxx Linker V03.00 + NoICE + sdld,  page 15.
Hexadecimal  [32-Bits]

Area                                    Addr        Size        Decimal Bytes (Attributes)
--------------------------------        ----        ----        ------- ----- ------------
BSEG_BYTES                          00000020    00000002 =           2. bytes (REL,CON)

      Value  Global                              Global Defined In Module
      -----  --------------------------------   ------------------------
ASxxxx Linker V03.00 + NoICE + sdld,  page 16.
Hexadecimal  [32-Bits]

Area                                    Addr        Size        Decimal Bytes (Attributes)
--------------------------------        ----        ----        ------- ----- ------------
REG_BANK_0                          00000000    00000008 =           8. bytes (REL,OVR)

      Value  Global                              Global Defined In Module
      -----  --------------------------------   ------------------------
ASxxxx Linker V03.00 + NoICE + sdld,  page 17.
Hexadecimal  [32-Bits]

Area                                    Addr        Size        Decimal Bytes (Attributes)
--------------------------------        ----        ----        ------- ----- ------------
DSEG                                00000000    0000007D =         125. bytes (REL,CON)

      Value  Global                              Global Defined In Module
      -----  --------------------------------   ------------------------
     00000008  _vsprintf_PARM_2                   sprintf
     0000000B  _vsprintf_PARM_3                   sprintf
     0000000F  _bp                                _bp
     00000010  _vprintf_PARM_2                    vprintf
     00000022  LSquiggles.lcd_clear$NumBytes$1$   Squiggles
     00000023  LSquiggles.lcd_clear$Cmd$1$77      Squiggles
     00000025  LSquiggles.read_keypad$Data$1$78   Squiggles
     00000027  LSquiggles.i2c_write_data$start_   Squiggles
     00000027  _i2c_write_data_PARM_2             Squiggles
     00000028  LSquiggles.i2c_write_data$buffer   Squiggles
     00000028  _i2c_write_data_PARM_3             Squiggles
     0000002B  LSquiggles.i2c_write_data$num_by   Squiggles
     0000002B  _i2c_write_data_PARM_4             Squiggles
     0000002C  LSquiggles.i2c_read_data$start_r   Squiggles
     0000002C  _i2c_read_data_PARM_2              Squiggles
     0000002D  LSquiggles.i2c_read_data$buffer$   Squiggles
     0000002D  _i2c_read_data_PARM_3              Squiggles
     00000030  LSquiggles.i2c_read_data$num_byt   Squiggles
     00000030  _i2c_read_data_PARM_4              Squiggles
     00000031  LSquiggles.Accel_Init$Data2$1$10   Squiggles
     00000032  G$Counts$0$0                       Squiggles
     00000032  _Counts                            Squiggles
     00000034  G$nCounts$0$0                      Squiggles
     00000034  _nCounts                           Squiggles
     00000036  G$nOverflows$0$0                   Squiggles
     00000036  _nOverflows                        Squiggles
     00000038  G$desired_heading$0$0              Squiggles
     00000038  _desired_heading                   Squiggles
     0000003A  G$compass_gain$0$0                 Squiggles
     0000003A  _compass_gain                      Squiggles
     0000003E  G$h_count$0$0                      Squiggles
     0000003E  _h_count                           Squiggles
     0000003F  G$r_count$0$0                      Squiggles
     0000003F  _r_count                           Squiggles
     00000040  G$delay$0$0                        Squiggles
     00000040  _delay                             Squiggles
     00000041  G$new_heading$0$0                  Squiggles
     00000041  _new_heading                       Squiggles
     00000042  G$new_range$0$0                    Squiggles
     00000042  _new_range                         Squiggles
     00000043  G$heading$0$0                      Squiggles
     00000043  _heading                           Squiggles
     00000045  G$range$0$0                        Squiggles
     00000045  _range                             Squiggles
     00000047  G$COMPASS_PW$0$0                   Squiggles
     00000047  _COMPASS_PW                        Squiggles
     00000049  G$range_adj$0$0                    Squiggles
     00000049  _range_adj                         Squiggles
     0000004B  G$compass_adj$0$0                  Squiggles
     0000004B  _compass_adj                       Squiggles
ASxxxx Linker V03.00 + NoICE + sdld,  page 18.
Hexadecimal  [32-Bits]

Area                                    Addr        Size        Decimal Bytes (Attributes)
--------------------------------        ----        ----        ------- ----- ------------
DSEG                                00000000    0000007D =         125. bytes (REL,CON)

      Value  Global                              Global Defined In Module
      -----  --------------------------------   ------------------------
     0000004D  G$ranger_gain$0$0                  Squiggles
     0000004D  _ranger_gain                       Squiggles
     0000004E  G$AD_Result$0$0                    Squiggles
     0000004E  _AD_Result                         Squiggles
     0000004F  G$voltage$0$0                      Squiggles
     0000004F  _voltage                           Squiggles
     00000050  G$Data$0$0                         Squiggles
     00000050  _Data                              Squiggles
     00000052  G$print_delay$0$0                  Squiggles
     00000052  _print_delay                       Squiggles
     00000053  LSquiggles.read_compass$Data$1$1   Squiggles
     00000061  __print_format_PARM_2              printf_large
     00000064  __print_format_PARM_3              printf_large
     00000067  __print_format_PARM_4              printf_large

ASxxxx Linker V03.00 + NoICE + sdld,  page 19.
Hexadecimal  [32-Bits]

Area                                    Addr        Size        Decimal Bytes (Attributes)
--------------------------------        ----        ----        ------- ----- ------------
OSEG                                00000011    00000006 =           6. bytes (REL,OVR)

      Value  Global                              Global Defined In Module
      -----  --------------------------------   ------------------------
     00000011  __divsint_PARM_2                   _divuint
     00000011  __divuint_PARM_2                   _divuint
     00000011  __gptrput_PARM_2                   _gptrput
     00000011  __mulint_PARM_2                    _mulint

ASxxxx Linker V03.00 + NoICE + sdld,  page 20.
Hexadecimal  [32-Bits]

Area                                    Addr        Size        Decimal Bytes (Attributes)
--------------------------------        ----        ----        ------- ----- ------------
ISEG                                00000017    00000006 =           6. bytes (REL,CON)

      Value  Global                              Global Defined In Module
      -----  --------------------------------   ------------------------
ASxxxx Linker V03.00 + NoICE + sdld,  page 21.
Hexadecimal  [32-Bits]

Area                                    Addr        Size        Decimal Bytes (Attributes)
--------------------------------        ----        ----        ------- ----- ------------
SSEG                                0000006F    00000091 =         145. bytes (REL,OVR)

      Value  Global                              Global Defined In Module
      -----  --------------------------------   ------------------------
     0000006F  __start__stack                     Squiggles

ASxxxx Linker V03.00 + NoICE + sdld,  page 22.
Hexadecimal  [32-Bits]

Area                                    Addr        Size        Decimal Bytes (Attributes)
--------------------------------        ----        ----        ------- ----- ------------
XSEG                                00000001    00000050 =          80. bytes (REL,CON,XDATA)

      Value  Global                              Global Defined In Module
      -----  --------------------------------   ------------------------
D:   00000001  LSquiggles.lcd_print$text$1$73     Squiggles

ASxxxx Linker V03.00 + NoICE + sdld,  page 23.
Hexadecimal  [32-Bits]

Area                                    Addr        Size        Decimal Bytes (Attributes)
--------------------------------        ----        ----        ------- ----- ------------
HOME                                00000000    00000051 =          81. bytes (REL,CON,CODE)

      Value  Global                              Global Defined In Module
      -----  --------------------------------   ------------------------
C:   00000000  A$Squiggles$1110                   Squiggles
C:   00000003  A$Squiggles$1111                   Squiggles
C:   0000000B  A$Squiggles$1113                   Squiggles
C:   00000013  A$Squiggles$1115                   Squiggles
C:   0000001B  A$Squiggles$1117                   Squiggles
C:   00000023  A$Squiggles$1119                   Squiggles
C:   0000002B  A$Squiggles$1121                   Squiggles
C:   00000033  A$Squiggles$1123                   Squiggles
C:   0000003B  A$Squiggles$1125                   Squiggles
C:   00000043  A$Squiggles$1127                   Squiggles
C:   0000004B  A$Squiggles$1129                   Squiggles
C:   0000004E  A$Squiggles$1163                   Squiggles
C:   0000004E  __sdcc_program_startup             Squiggles

ASxxxx Linker V03.00 + NoICE + sdld,  page 24.
Hexadecimal  [32-Bits]

Area                                    Addr        Size        Decimal Bytes (Attributes)
--------------------------------        ----        ----        ------- ----- ------------
GSINIT0                             00000051    00000003 =           3. bytes (REL,CON,CODE)

      Value  Global                              Global Defined In Module
      -----  --------------------------------   ------------------------
C:   00000051  __sdcc_gsinit_startup              

ASxxxx Linker V03.00 + NoICE + sdld,  page 25.
Hexadecimal  [32-Bits]

Area                                    Addr        Size        Decimal Bytes (Attributes)
--------------------------------        ----        ----        ------- ----- ------------
GSINIT2                             00000054    0000000A =          10. bytes (REL,CON,CODE)

      Value  Global                              Global Defined In Module
      -----  --------------------------------   ------------------------
ASxxxx Linker V03.00 + NoICE + sdld,  page 26.
Hexadecimal  [32-Bits]

Area                                    Addr        Size        Decimal Bytes (Attributes)
--------------------------------        ----        ----        ------- ----- ------------
GSINIT3                             0000005E    00000022 =          34. bytes (REL,CON,CODE)

      Value  Global                              Global Defined In Module
      -----  --------------------------------   ------------------------
C:   0000005E  __mcs51_genXINIT                   

ASxxxx Linker V03.00 + NoICE + sdld,  page 27.
Hexadecimal  [32-Bits]

Area                                    Addr        Size        Decimal Bytes (Attributes)
--------------------------------        ----        ----        ------- ----- ------------
GSINIT4                             00000080    0000002A =          42. bytes (REL,CON,CODE)

      Value  Global                              Global Defined In Module
      -----  --------------------------------   ------------------------
C:   00000080  __mcs51_genRAMCLEAR                
C:   00000086  __mcs51_genXRAMCLEAR               

ASxxxx Linker V03.00 + NoICE + sdld,  page 28.
Hexadecimal  [32-Bits]

Area                                    Addr        Size        Decimal Bytes (Attributes)
--------------------------------        ----        ----        ------- ----- ------------
GSINIT                              000000AA    0000000C =          12. bytes (REL,CON,CODE)

      Value  Global                              Global Defined In Module
      -----  --------------------------------   ------------------------
C:   000000AA  A$Squiggles$1145                   Squiggles
C:   000000AA  C$Squiggles.c$54$1$159             Squiggles
C:   000000AB  A$Squiggles$1146                   Squiggles
C:   000000AD  A$Squiggles$1147                   Squiggles
C:   000000AF  A$Squiggles$1150                   Squiggles
C:   000000AF  C$Squiggles.c$55$1$159             Squiggles
C:   000000B1  A$Squiggles$1151                   Squiggles
C:   000000B3  A$Squiggles$1154                   Squiggles
C:   000000B3  C$Squiggles.c$56$1$159             Squiggles
ASxxxx Linker V03.00 + NoICE + sdld,  page 29.
Hexadecimal  [32-Bits]

Area                                    Addr        Size        Decimal Bytes (Attributes)
--------------------------------        ----        ----        ------- ----- ------------
GSFINAL                             000000B6    00000003 =           3. bytes (REL,CON,CODE)

      Value  Global                              Global Defined In Module
      -----  --------------------------------   ------------------------
C:   000000B6  A$Squiggles$1156                   Squiggles

ASxxxx Linker V03.00 + NoICE + sdld,  page 30.
Hexadecimal  [32-Bits]

Area                                    Addr        Size        Decimal Bytes (Attributes)
--------------------------------        ----        ----        ------- ----- ------------
CSEG                                000000B9    000014B2 =        5298. bytes (REL,CON,CODE)

      Value  Global                              Global Defined In Module
      -----  --------------------------------   ------------------------
C:   000000B9  A$Squiggles$1191                   Squiggles
C:   000000B9  C$c8051_SDCC.h$42$0$0              Squiggles
C:   000000B9  C$c8051_SDCC.h$46$1$31             Squiggles
C:   000000B9  G$SYSCLK_Init$0$0                  Squiggles
C:   000000B9  _SYSCLK_Init                       Squiggles
C:   000000BC  A$Squiggles$1194                   Squiggles
C:   000000BC  C$c8051_SDCC.h$49$1$31             Squiggles
C:   000000BE  A$Squiggles$1195                   Squiggles
C:   000000C0  A$Squiggles$1197                   Squiggles
C:   000000C1  A$Squiggles$1198                   Squiggles
C:   000000C4  A$Squiggles$1199                   Squiggles
C:   000000C5  A$Squiggles$1201                   Squiggles
C:   000000C6  A$Squiggles$1202                   Squiggles
C:   000000C7  A$Squiggles$1203                   Squiggles
C:   000000C9  A$Squiggles$1207                   Squiggles
C:   000000C9  C$c8051_SDCC.h$51$1$31             Squiggles
C:   000000CB  A$Squiggles$1208                   Squiggles
C:   000000CE  A$Squiggles$1211                   Squiggles
C:   000000CE  C$c8051_SDCC.h$53$1$31             Squiggles
C:   000000D1  A$Squiggles$1214                   Squiggles
C:   000000D1  C$c8051_SDCC.h$56$1$31             Squiggles
C:   000000D1  XG$SYSCLK_Init$0$0                 Squiggles
C:   000000D2  A$Squiggles$1227                   Squiggles
C:   000000D2  C$c8051_SDCC.h$64$1$31             Squiggles
C:   000000D2  C$c8051_SDCC.h$66$1$33             Squiggles
C:   000000D2  G$UART0_Init$0$0                   Squiggles
C:   000000D2  _UART0_Init                        Squiggles
C:   000000D5  A$Squiggles$1230                   Squiggles
C:   000000D5  C$c8051_SDCC.h$67$1$33             Squiggles
C:   000000D8  A$Squiggles$1233                   Squiggles
C:   000000D8  C$c8051_SDCC.h$68$1$33             Squiggles
C:   000000DB  A$Squiggles$1236                   Squiggles
C:   000000DB  C$c8051_SDCC.h$69$1$33             Squiggles
C:   000000DD  A$Squiggles$1239                   Squiggles
C:   000000DD  C$c8051_SDCC.h$70$1$33             Squiggles
C:   000000E0  A$Squiggles$1242                   Squiggles
C:   000000E0  C$c8051_SDCC.h$71$1$33             Squiggles
C:   000000E3  A$Squiggles$1245                   Squiggles
C:   000000E3  C$c8051_SDCC.h$73$1$33             Squiggles
C:   000000E5  A$Squiggles$1248                   Squiggles
C:   000000E5  C$c8051_SDCC.h$74$1$33             Squiggles
C:   000000E8  A$Squiggles$1251                   Squiggles
C:   000000E8  C$c8051_SDCC.h$75$1$33             Squiggles
C:   000000E8  XG$UART0_Init$0$0                  Squiggles
C:   000000E9  A$Squiggles$1264                   Squiggles
C:   000000E9  C$c8051_SDCC.h$83$1$33             Squiggles
C:   000000E9  C$c8051_SDCC.h$85$1$35             Squiggles
C:   000000E9  G$Sys_Init$0$0                     Squiggles
C:   000000E9  _Sys_Init                          Squiggles
C:   000000EC  A$Squiggles$1267                   Squiggles
ASxxxx Linker V03.00 + NoICE + sdld,  page 31.
Hexadecimal  [32-Bits]

Area                                    Addr        Size        Decimal Bytes (Attributes)
--------------------------------        ----        ----        ------- ----- ------------
CSEG                                000000B9    000014B2 =        5298. bytes (REL,CON,CODE)

      Value  Global                              Global Defined In Module
      -----  --------------------------------   ------------------------
C:   000000EC  C$c8051_SDCC.h$86$1$35             Squiggles
C:   000000EF  A$Squiggles$1270                   Squiggles
C:   000000EF  C$c8051_SDCC.h$88$1$35             Squiggles
C:   000000F2  A$Squiggles$1273                   Squiggles
C:   000000F2  C$c8051_SDCC.h$89$1$35             Squiggles
C:   000000F5  A$Squiggles$1276                   Squiggles
C:   000000F5  C$c8051_SDCC.h$91$1$35             Squiggles
C:   000000F8  A$Squiggles$1279                   Squiggles
C:   000000F8  C$c8051_SDCC.h$92$1$35             Squiggles
C:   000000FB  A$Squiggles$1282                   Squiggles
C:   000000FB  C$c8051_SDCC.h$93$1$35             Squiggles
C:   000000FB  XG$Sys_Init$0$0                    Squiggles
C:   000000FC  A$Squiggles$1295                   Squiggles
C:   000000FC  C$c8051_SDCC.h$98$1$35             Squiggles
C:   000000FC  G$putchar$0$0                      Squiggles
C:   000000FC  _putchar                           Squiggles
C:   000000FE  A$Squiggles$1301                   Squiggles
C:   000000FE  C$c8051_SDCC.h$100$1$37            Squiggles
C:   000000FE  C$c8051_SDCC.h$101$1$37            Squiggles
C:   00000101  A$Squiggles$1302                   Squiggles
C:   00000103  A$Squiggles$1306                   Squiggles
C:   00000103  C$c8051_SDCC.h$102$1$37            Squiggles
C:   00000105  A$Squiggles$1309                   Squiggles
C:   00000105  C$c8051_SDCC.h$103$1$37            Squiggles
C:   00000105  XG$putchar$0$0                     Squiggles
C:   00000106  A$Squiggles$1327                   Squiggles
C:   00000106  C$c8051_SDCC.h$108$1$37            Squiggles
C:   00000106  C$c8051_SDCC.h$111$1$39            Squiggles
C:   00000106  C$c8051_SDCC.h$112$1$39            Squiggles
C:   00000106  G$getchar$0$0                      Squiggles
C:   00000106  _getchar                           Squiggles
C:   00000109  A$Squiggles$1328                   Squiggles
C:   0000010B  A$Squiggles$1332                   Squiggles
C:   0000010B  C$c8051_SDCC.h$113$1$39            Squiggles
C:   0000010E  A$Squiggles$1335                   Squiggles
C:   0000010E  C$c8051_SDCC.h$114$1$39            Squiggles
C:   00000111  A$Squiggles$1338                   Squiggles
C:   00000111  C$c8051_SDCC.h$115$1$39            Squiggles
C:   00000114  A$Squiggles$1341                   Squiggles
C:   00000114  C$c8051_SDCC.h$116$1$39            Squiggles
C:   00000114  XG$getchar$0$0                     Squiggles
C:   00000115  A$Squiggles$1358                   Squiggles
C:   00000115  C$i2c.h$81$1$39                    Squiggles
C:   00000115  G$lcd_print$0$0                    Squiggles
C:   00000115  _lcd_print                         Squiggles
C:   00000117  A$Squiggles$1359                   Squiggles
C:   0000011A  A$Squiggles$1362                   Squiggles
C:   0000011A  C$i2c.h$87$1$73                    Squiggles
C:   0000011C  A$Squiggles$1363                   Squiggles
C:   0000011E  A$Squiggles$1364                   Squiggles
C:   0000011F  A$Squiggles$1365                   Squiggles
ASxxxx Linker V03.00 + NoICE + sdld,  page 32.
Hexadecimal  [32-Bits]

Area                                    Addr        Size        Decimal Bytes (Attributes)
--------------------------------        ----        ----        ------- ----- ------------
CSEG                                000000B9    000014B2 =        5298. bytes (REL,CON,CODE)

      Value  Global                              Global Defined In Module
      -----  --------------------------------   ------------------------
C:   00000121  A$Squiggles$1366                   Squiggles
C:   00000122  A$Squiggles$1367                   Squiggles
C:   00000124  A$Squiggles$1368                   Squiggles
C:   00000125  A$Squiggles$1369                   Squiggles
C:   00000127  A$Squiggles$1370                   Squiggles
C:   0000012A  A$Squiggles$1371                   Squiggles
C:   0000012C  A$Squiggles$1372                   Squiggles
C:   0000012F  A$Squiggles$1373                   Squiggles
C:   00000131  A$Squiggles$1374                   Squiggles
C:   00000133  A$Squiggles$1375                   Squiggles
C:   00000135  A$Squiggles$1379                   Squiggles
C:   00000135  C$i2c.h$89$2$74                    Squiggles
C:   00000137  A$Squiggles$1380                   Squiggles
C:   00000139  A$Squiggles$1381                   Squiggles
C:   0000013A  A$Squiggles$1382                   Squiggles
C:   0000013C  A$Squiggles$1385                   Squiggles
C:   0000013C  C$i2c.h$90$1$73                    Squiggles
C:   0000013E  A$Squiggles$1386                   Squiggles
C:   00000140  A$Squiggles$1387                   Squiggles
C:   00000141  A$Squiggles$1388                   Squiggles
C:   00000143  A$Squiggles$1389                   Squiggles
C:   00000144  A$Squiggles$1390                   Squiggles
C:   00000146  A$Squiggles$1391                   Squiggles
C:   00000147  A$Squiggles$1392                   Squiggles
C:   00000149  A$Squiggles$1393                   Squiggles
C:   0000014C  A$Squiggles$1394                   Squiggles
C:   0000014F  A$Squiggles$1395                   Squiggles
C:   00000152  A$Squiggles$1398                   Squiggles
C:   00000152  C$i2c.h$93$1$73                    Squiggles
C:   00000155  A$Squiggles$1399                   Squiggles
C:   00000158  A$Squiggles$1400                   Squiggles
C:   0000015B  A$Squiggles$1401                   Squiggles
C:   0000015D  A$Squiggles$1404                   Squiggles
C:   0000015F  A$Squiggles$1406                   Squiggles
C:   00000160  A$Squiggles$1407                   Squiggles
C:   00000161  A$Squiggles$1408                   Squiggles
C:   00000162  A$Squiggles$1409                   Squiggles
C:   00000164  A$Squiggles$1412                   Squiggles
C:   00000164  C$i2c.h$96$2$76                    Squiggles
C:   00000165  A$Squiggles$1413                   Squiggles
C:   00000167  A$Squiggles$1414                   Squiggles
C:   00000169  A$Squiggles$1415                   Squiggles
C:   0000016A  A$Squiggles$1416                   Squiggles
C:   0000016C  A$Squiggles$1417                   Squiggles
C:   0000016E  A$Squiggles$1418                   Squiggles
C:   0000016F  A$Squiggles$1419                   Squiggles
C:   00000170  A$Squiggles$1420                   Squiggles
C:   00000173  A$Squiggles$1421                   Squiggles
C:   00000174  A$Squiggles$1422                   Squiggles
C:   00000176  A$Squiggles$1423                   Squiggles
C:   00000178  A$Squiggles$1424                   Squiggles
ASxxxx Linker V03.00 + NoICE + sdld,  page 33.
Hexadecimal  [32-Bits]

Area                                    Addr        Size        Decimal Bytes (Attributes)
--------------------------------        ----        ----        ------- ----- ------------
CSEG                                000000B9    000014B2 =        5298. bytes (REL,CON,CODE)

      Value  Global                              Global Defined In Module
      -----  --------------------------------   ------------------------
C:   00000179  A$Squiggles$1425                   Squiggles
C:   0000017B  A$Squiggles$1426                   Squiggles
C:   0000017D  A$Squiggles$1427                   Squiggles
C:   0000017F  A$Squiggles$1428                   Squiggles
C:   00000180  A$Squiggles$1432                   Squiggles
C:   00000180  C$i2c.h$94$1$73                    Squiggles
C:   00000181  A$Squiggles$1433                   Squiggles
C:   00000183  A$Squiggles$1437                   Squiggles
C:   00000183  C$i2c.h$99$1$73                    Squiggles
C:   00000186  A$Squiggles$1438                   Squiggles
C:   00000189  A$Squiggles$1439                   Squiggles
C:   0000018C  A$Squiggles$1440                   Squiggles
C:   0000018F  A$Squiggles$1441                   Squiggles
C:   00000191  A$Squiggles$1442                   Squiggles
C:   00000194  A$Squiggles$1443                   Squiggles
C:   00000197  A$Squiggles$1445                   Squiggles
C:   00000199  A$Squiggles$1448                   Squiggles
C:   00000199  C$i2c.h$100$1$73                   Squiggles
C:   00000199  XG$lcd_print$0$0                   Squiggles
C:   0000019A  A$Squiggles$1464                   Squiggles
C:   0000019A  C$i2c.h$103$1$73                   Squiggles
C:   0000019A  C$i2c.h$105$1$73                   Squiggles
C:   0000019A  G$lcd_clear$0$0                    Squiggles
C:   0000019A  _lcd_clear                         Squiggles
C:   0000019D  A$Squiggles$1468                   Squiggles
C:   0000019D  C$i2c.h$107$1$77                   Squiggles
C:   0000019F  A$Squiggles$1469                   Squiggles
C:   000001A1  A$Squiggles$1470                   Squiggles
C:   000001A3  A$Squiggles$1471                   Squiggles
C:   000001A6  A$Squiggles$1472                   Squiggles
C:   000001A9  A$Squiggles$1473                   Squiggles
C:   000001AC  A$Squiggles$1474                   Squiggles
C:   000001AF  A$Squiggles$1475                   Squiggles
C:   000001B2  A$Squiggles$1476                   Squiggles
C:   000001B5  A$Squiggles$1477                   Squiggles
C:   000001B8  A$Squiggles$1478                   Squiggles
C:   000001BA  A$Squiggles$1482                   Squiggles
C:   000001BA  C$i2c.h$109$1$77                   Squiggles
C:   000001BD  A$Squiggles$1485                   Squiggles
C:   000001BD  C$i2c.h$110$1$77                   Squiggles
C:   000001C0  A$Squiggles$1486                   Squiggles
C:   000001C3  A$Squiggles$1487                   Squiggles
C:   000001C6  A$Squiggles$1488                   Squiggles
C:   000001C9  A$Squiggles$1489                   Squiggles
C:   000001CC  A$Squiggles$1490                   Squiggles
C:   000001CF  A$Squiggles$1491                   Squiggles
C:   000001D2  A$Squiggles$1494                   Squiggles
C:   000001D2  C$i2c.h$111$1$77                   Squiggles
C:   000001D2  XG$lcd_clear$0$0                   Squiggles
C:   000001D3  A$Squiggles$1510                   Squiggles
C:   000001D3  C$i2c.h$114$1$77                   Squiggles
ASxxxx Linker V03.00 + NoICE + sdld,  page 34.
Hexadecimal  [32-Bits]

Area                                    Addr        Size        Decimal Bytes (Attributes)
--------------------------------        ----        ----        ------- ----- ------------
CSEG                                000000B9    000014B2 =        5298. bytes (REL,CON,CODE)

      Value  Global                              Global Defined In Module
      -----  --------------------------------   ------------------------
C:   000001D3  C$i2c.h$118$1$78                   Squiggles
C:   000001D3  G$read_keypad$0$0                  Squiggles
C:   000001D3  _read_keypad                       Squiggles
C:   000001D6  A$Squiggles$1511                   Squiggles
C:   000001D9  A$Squiggles$1512                   Squiggles
C:   000001DC  A$Squiggles$1513                   Squiggles
C:   000001DF  A$Squiggles$1514                   Squiggles
C:   000001E2  A$Squiggles$1515                   Squiggles
C:   000001E5  A$Squiggles$1516                   Squiggles
C:   000001E8  A$Squiggles$1519                   Squiggles
C:   000001E8  C$i2c.h$119$1$78                   Squiggles
C:   000001EA  A$Squiggles$1520                   Squiggles
C:   000001ED  A$Squiggles$1521                   Squiggles
C:   000001F0  A$Squiggles$1522                   Squiggles
C:   000001F2  A$Squiggles$1526                   Squiggles
C:   000001F4  A$Squiggles$1527                   Squiggles
C:   000001F6  A$Squiggles$1531                   Squiggles
C:   000001F6  C$i2c.h$123$2$79                   Squiggles
C:   000001F8  A$Squiggles$1532                   Squiggles
C:   000001FA  A$Squiggles$1533                   Squiggles
C:   000001FC  A$Squiggles$1534                   Squiggles
C:   000001FE  A$Squiggles$1535                   Squiggles
C:   00000200  A$Squiggles$1537                   Squiggles
C:   00000201  A$Squiggles$1538                   Squiggles
C:   00000202  A$Squiggles$1539                   Squiggles
C:   00000203  A$Squiggles$1540                   Squiggles
C:   00000204  A$Squiggles$1541                   Squiggles
C:   00000205  A$Squiggles$1542                   Squiggles
C:   00000206  A$Squiggles$1544                   Squiggles
C:   00000209  A$Squiggles$1545                   Squiggles
C:   0000020B  A$Squiggles$1546                   Squiggles
C:   0000020D  A$Squiggles$1547                   Squiggles
C:   0000020E  A$Squiggles$1548                   Squiggles
C:   00000210  A$Squiggles$1549                   Squiggles
C:   00000211  A$Squiggles$1550                   Squiggles
C:   00000213  A$Squiggles$1551                   Squiggles
C:   00000214  A$Squiggles$1552                   Squiggles
C:   00000215  A$Squiggles$1553                   Squiggles
C:   00000217  A$Squiggles$1556                   Squiggles
C:   00000217  C$i2c.h$124$2$79                   Squiggles
C:   00000219  A$Squiggles$1557                   Squiggles
C:   0000021A  A$Squiggles$1558                   Squiggles
C:   0000021C  A$Squiggles$1559                   Squiggles
C:   0000021E  A$Squiggles$1563                   Squiggles
C:   0000021E  C$i2c.h$121$1$78                   Squiggles
C:   0000021F  A$Squiggles$1564                   Squiggles
C:   00000221  A$Squiggles$1565                   Squiggles
C:   00000224  A$Squiggles$1567                   Squiggles
C:   00000226  A$Squiggles$1570                   Squiggles
C:   00000226  C$i2c.h$127$1$78                   Squiggles
C:   00000228  A$Squiggles$1571                   Squiggles
ASxxxx Linker V03.00 + NoICE + sdld,  page 35.
Hexadecimal  [32-Bits]

Area                                    Addr        Size        Decimal Bytes (Attributes)
--------------------------------        ----        ----        ------- ----- ------------
CSEG                                000000B9    000014B2 =        5298. bytes (REL,CON,CODE)

      Value  Global                              Global Defined In Module
      -----  --------------------------------   ------------------------
C:   0000022B  A$Squiggles$1572                   Squiggles
C:   0000022E  A$Squiggles$1573                   Squiggles
C:   00000230  A$Squiggles$1577                   Squiggles
C:   00000230  C$i2c.h$129$1$78                   Squiggles
C:   00000232  A$Squiggles$1578                   Squiggles
C:   00000235  A$Squiggles$1579                   Squiggles
C:   00000238  A$Squiggles$1580                   Squiggles
C:   0000023A  A$Squiggles$1584                   Squiggles
C:   0000023A  C$i2c.h$131$1$78                   Squiggles
C:   0000023C  A$Squiggles$1585                   Squiggles
C:   0000023F  A$Squiggles$1586                   Squiggles
C:   00000242  A$Squiggles$1587                   Squiggles
C:   00000244  A$Squiggles$1591                   Squiggles
C:   00000244  C$i2c.h$133$1$78                   Squiggles
C:   00000246  A$Squiggles$1592                   Squiggles
C:   00000249  A$Squiggles$1593                   Squiggles
C:   0000024C  A$Squiggles$1594                   Squiggles
C:   0000024E  A$Squiggles$1598                   Squiggles
C:   0000024E  C$i2c.h$135$1$78                   Squiggles
C:   00000251  A$Squiggles$1602                   Squiggles
C:   00000251  C$i2c.h$136$1$78                   Squiggles
C:   00000251  XG$read_keypad$0$0                 Squiggles
C:   00000252  A$Squiggles$1618                   Squiggles
C:   00000252  C$i2c.h$148$1$78                   Squiggles
C:   00000252  G$kpd_input$0$0                    Squiggles
C:   00000252  _kpd_input                         Squiggles
C:   00000254  A$Squiggles$1623                   Squiggles
C:   00000254  C$i2c.h$153$1$81                   Squiggles
C:   00000254  C$i2c.h$156$1$81                   Squiggles
C:   00000255  A$Squiggles$1624                   Squiggles
C:   00000256  A$Squiggles$1625                   Squiggles
C:   00000257  A$Squiggles$1626                   Squiggles
C:   00000258  A$Squiggles$1627                   Squiggles
C:   0000025A  A$Squiggles$1628                   Squiggles
C:   0000025C  A$Squiggles$1629                   Squiggles
C:   0000025E  A$Squiggles$1630                   Squiggles
C:   00000260  A$Squiggles$1631                   Squiggles
C:   00000262  A$Squiggles$1632                   Squiggles
C:   00000264  A$Squiggles$1633                   Squiggles
C:   00000266  A$Squiggles$1634                   Squiggles
C:   00000268  A$Squiggles$1635                   Squiggles
C:   0000026A  A$Squiggles$1636                   Squiggles
C:   0000026D  A$Squiggles$1637                   Squiggles
C:   0000026F  A$Squiggles$1638                   Squiggles
C:   00000271  A$Squiggles$1639                   Squiggles
C:   00000273  A$Squiggles$1640                   Squiggles
C:   00000275  A$Squiggles$1641                   Squiggles
C:   00000277  A$Squiggles$1645                   Squiggles
C:   00000277  C$i2c.h$158$1$81                   Squiggles
C:   00000279  A$Squiggles$1646                   Squiggles
C:   0000027B  A$Squiggles$1647                   Squiggles
ASxxxx Linker V03.00 + NoICE + sdld,  page 36.
Hexadecimal  [32-Bits]

Area                                    Addr        Size        Decimal Bytes (Attributes)
--------------------------------        ----        ----        ------- ----- ------------
CSEG                                000000B9    000014B2 =        5298. bytes (REL,CON,CODE)

      Value  Global                              Global Defined In Module
      -----  --------------------------------   ------------------------
C:   0000027D  A$Squiggles$1648                   Squiggles
C:   0000027F  A$Squiggles$1649                   Squiggles
C:   00000280  A$Squiggles$1650                   Squiggles
C:   00000282  A$Squiggles$1651                   Squiggles
C:   00000284  A$Squiggles$1652                   Squiggles
C:   00000286  A$Squiggles$1653                   Squiggles
C:   00000287  A$Squiggles$1654                   Squiggles
C:   00000289  A$Squiggles$1655                   Squiggles
C:   0000028B  A$Squiggles$1656                   Squiggles
C:   0000028D  A$Squiggles$1657                   Squiggles
C:   0000028E  A$Squiggles$1658                   Squiggles
C:   00000290  A$Squiggles$1659                   Squiggles
C:   00000292  A$Squiggles$1660                   Squiggles
C:   00000294  A$Squiggles$1661                   Squiggles
C:   00000295  A$Squiggles$1662                   Squiggles
C:   00000297  A$Squiggles$1663                   Squiggles
C:   00000299  A$Squiggles$1664                   Squiggles
C:   0000029B  A$Squiggles$1665                   Squiggles
C:   0000029C  A$Squiggles$1666                   Squiggles
C:   0000029E  A$Squiggles$1667                   Squiggles
C:   000002A0  A$Squiggles$1668                   Squiggles
C:   000002A2  A$Squiggles$1669                   Squiggles
C:   000002A4  A$Squiggles$1670                   Squiggles
C:   000002A6  A$Squiggles$1671                   Squiggles
C:   000002A8  A$Squiggles$1672                   Squiggles
C:   000002AA  A$Squiggles$1673                   Squiggles
C:   000002AD  A$Squiggles$1674                   Squiggles
C:   000002AF  A$Squiggles$1675                   Squiggles
C:   000002B1  A$Squiggles$1676                   Squiggles
C:   000002B3  A$Squiggles$1679                   Squiggles
C:   000002B3  C$i2c.h$160$1$81                   Squiggles
C:   000002B6  A$Squiggles$1680                   Squiggles
C:   000002B9  A$Squiggles$1681                   Squiggles
C:   000002BA  A$Squiggles$1682                   Squiggles
C:   000002BD  A$Squiggles$1683                   Squiggles
C:   000002BF  A$Squiggles$1684                   Squiggles
C:   000002C1  A$Squiggles$1687                   Squiggles
C:   000002C3  A$Squiggles$1691                   Squiggles
C:   000002C3  C$i2c.h$166$3$84                   Squiggles
C:   000002C5  A$Squiggles$1692                   Squiggles
C:   000002C7  A$Squiggles$1693                   Squiggles
C:   000002C9  A$Squiggles$1694                   Squiggles
C:   000002CC  A$Squiggles$1695                   Squiggles
C:   000002CE  A$Squiggles$1696                   Squiggles
C:   000002D0  A$Squiggles$1697                   Squiggles
C:   000002D2  A$Squiggles$1698                   Squiggles
C:   000002D4  A$Squiggles$1699                   Squiggles
C:   000002D6  A$Squiggles$1700                   Squiggles
C:   000002D9  A$Squiggles$1701                   Squiggles
C:   000002DB  A$Squiggles$1703                   Squiggles
C:   000002DE  A$Squiggles$1705                   Squiggles
ASxxxx Linker V03.00 + NoICE + sdld,  page 37.
Hexadecimal  [32-Bits]

Area                                    Addr        Size        Decimal Bytes (Attributes)
--------------------------------        ----        ----        ------- ----- ------------
CSEG                                000000B9    000014B2 =        5298. bytes (REL,CON,CODE)

      Value  Global                              Global Defined In Module
      -----  --------------------------------   ------------------------
C:   000002E1  A$Squiggles$1706                   Squiggles
C:   000002E2  A$Squiggles$1707                   Squiggles
C:   000002E4  A$Squiggles$1708                   Squiggles
C:   000002E6  A$Squiggles$1709                   Squiggles
C:   000002E8  A$Squiggles$1710                   Squiggles
C:   000002EA  A$Squiggles$1711                   Squiggles
C:   000002ED  A$Squiggles$1712                   Squiggles
C:   000002EF  A$Squiggles$1713                   Squiggles
C:   000002F1  A$Squiggles$1714                   Squiggles
C:   000002F3  A$Squiggles$1715                   Squiggles
C:   000002F5  A$Squiggles$1719                   Squiggles
C:   000002F5  C$i2c.h$167$2$82                   Squiggles
C:   000002F8  A$Squiggles$1723                   Squiggles
C:   000002F8  C$i2c.h$169$3$83                   Squiggles
C:   000002FA  A$Squiggles$1724                   Squiggles
C:   000002FC  A$Squiggles$1725                   Squiggles
C:   000002FF  A$Squiggles$1726                   Squiggles
C:   00000301  A$Squiggles$1727                   Squiggles
C:   00000303  A$Squiggles$1728                   Squiggles
C:   00000305  A$Squiggles$1729                   Squiggles
C:   00000308  A$Squiggles$1730                   Squiggles
C:   0000030B  A$Squiggles$1731                   Squiggles
C:   0000030C  A$Squiggles$1732                   Squiggles
C:   0000030E  A$Squiggles$1733                   Squiggles
C:   00000310  A$Squiggles$1734                   Squiggles
C:   00000312  A$Squiggles$1735                   Squiggles
C:   00000315  A$Squiggles$1736                   Squiggles
C:   00000317  A$Squiggles$1737                   Squiggles
C:   00000319  A$Squiggles$1738                   Squiggles
C:   0000031B  A$Squiggles$1742                   Squiggles
C:   0000031B  C$i2c.h$170$3$83                   Squiggles
C:   0000031D  A$Squiggles$1743                   Squiggles
C:   0000031F  A$Squiggles$1744                   Squiggles
C:   00000322  A$Squiggles$1748                   Squiggles
C:   00000322  C$i2c.h$174$3$84                   Squiggles
C:   00000323  A$Squiggles$1749                   Squiggles
C:   00000324  A$Squiggles$1750                   Squiggles
C:   00000325  A$Squiggles$1751                   Squiggles
C:   00000327  A$Squiggles$1752                   Squiggles
C:   00000328  A$Squiggles$1753                   Squiggles
C:   0000032A  A$Squiggles$1754                   Squiggles
C:   0000032C  A$Squiggles$1755                   Squiggles
C:   0000032E  A$Squiggles$1756                   Squiggles
C:   00000330  A$Squiggles$1757                   Squiggles
C:   00000332  A$Squiggles$1758                   Squiggles
C:   00000334  A$Squiggles$1759                   Squiggles
C:   00000336  A$Squiggles$1760                   Squiggles
C:   00000338  A$Squiggles$1761                   Squiggles
C:   0000033A  A$Squiggles$1762                   Squiggles
C:   0000033C  A$Squiggles$1763                   Squiggles
C:   0000033E  A$Squiggles$1764                   Squiggles
ASxxxx Linker V03.00 + NoICE + sdld,  page 38.
Hexadecimal  [32-Bits]

Area                                    Addr        Size        Decimal Bytes (Attributes)
--------------------------------        ----        ----        ------- ----- ------------
CSEG                                000000B9    000014B2 =        5298. bytes (REL,CON,CODE)

      Value  Global                              Global Defined In Module
      -----  --------------------------------   ------------------------
C:   00000340  A$Squiggles$1765                   Squiggles
C:   00000342  A$Squiggles$1766                   Squiggles
C:   00000344  A$Squiggles$1767                   Squiggles
C:   00000347  A$Squiggles$1768                   Squiggles
C:   00000349  A$Squiggles$1769                   Squiggles
C:   0000034B  A$Squiggles$1770                   Squiggles
C:   0000034D  A$Squiggles$1771                   Squiggles
C:   0000034F  A$Squiggles$1772                   Squiggles
C:   00000351  A$Squiggles$1773                   Squiggles
C:   00000353  A$Squiggles$1774                   Squiggles
C:   00000355  A$Squiggles$1775                   Squiggles
C:   00000357  A$Squiggles$1778                   Squiggles
C:   00000357  C$i2c.h$175$1$81                   Squiggles
C:   00000359  A$Squiggles$1779                   Squiggles
C:   0000035B  A$Squiggles$1780                   Squiggles
C:   0000035E  A$Squiggles$1781                   Squiggles
C:   00000360  A$Squiggles$1782                   Squiggles
C:   00000362  A$Squiggles$1783                   Squiggles
C:   00000364  A$Squiggles$1784                   Squiggles
C:   00000367  A$Squiggles$1785                   Squiggles
C:   00000369  A$Squiggles$1786                   Squiggles
C:   0000036B  A$Squiggles$1787                   Squiggles
C:   0000036D  A$Squiggles$1788                   Squiggles
C:   0000036F  A$Squiggles$1789                   Squiggles
C:   00000371  A$Squiggles$1790                   Squiggles
C:   00000373  A$Squiggles$1791                   Squiggles
C:   00000374  A$Squiggles$1792                   Squiggles
C:   00000375  A$Squiggles$1793                   Squiggles
C:   00000376  A$Squiggles$1794                   Squiggles
C:   00000377  A$Squiggles$1795                   Squiggles
C:   00000378  A$Squiggles$1796                   Squiggles
C:   00000379  A$Squiggles$1797                   Squiggles
C:   0000037A  A$Squiggles$1798                   Squiggles
C:   0000037C  A$Squiggles$1799                   Squiggles
C:   0000037D  A$Squiggles$1800                   Squiggles
C:   0000037E  A$Squiggles$1801                   Squiggles
C:   00000380  A$Squiggles$1802                   Squiggles
C:   00000381  A$Squiggles$1806                   Squiggles
C:   00000381  C$i2c.h$176$3$84                   Squiggles
C:   00000383  A$Squiggles$1807                   Squiggles
C:   00000385  A$Squiggles$1808                   Squiggles
C:   00000387  A$Squiggles$1809                   Squiggles
C:   00000389  A$Squiggles$1810                   Squiggles
C:   0000038C  A$Squiggles$1811                   Squiggles
C:   0000038E  A$Squiggles$1812                   Squiggles
C:   00000390  A$Squiggles$1813                   Squiggles
C:   00000392  A$Squiggles$1814                   Squiggles
C:   00000394  A$Squiggles$1815                   Squiggles
C:   00000396  A$Squiggles$1816                   Squiggles
C:   00000397  A$Squiggles$1817                   Squiggles
C:   0000039A  A$Squiggles$1818                   Squiggles
ASxxxx Linker V03.00 + NoICE + sdld,  page 39.
Hexadecimal  [32-Bits]

Area                                    Addr        Size        Decimal Bytes (Attributes)
--------------------------------        ----        ----        ------- ----- ------------
CSEG                                000000B9    000014B2 =        5298. bytes (REL,CON,CODE)

      Value  Global                              Global Defined In Module
      -----  --------------------------------   ------------------------
C:   0000039D  A$Squiggles$1819                   Squiggles
C:   0000039E  A$Squiggles$1820                   Squiggles
C:   000003A0  A$Squiggles$1821                   Squiggles
C:   000003A2  A$Squiggles$1822                   Squiggles
C:   000003A4  A$Squiggles$1823                   Squiggles
C:   000003A6  A$Squiggles$1824                   Squiggles
C:   000003A8  A$Squiggles$1825                   Squiggles
C:   000003AB  A$Squiggles$1826                   Squiggles
C:   000003AD  A$Squiggles$1827                   Squiggles
C:   000003AF  A$Squiggles$1828                   Squiggles
C:   000003B1  A$Squiggles$1829                   Squiggles
C:   000003B3  A$Squiggles$1830                   Squiggles
C:   000003B5  A$Squiggles$1834                   Squiggles
C:   000003B5  C$i2c.h$164$1$81                   Squiggles
C:   000003B6  A$Squiggles$1835                   Squiggles
C:   000003B7  A$Squiggles$1836                   Squiggles
C:   000003B8  A$Squiggles$1837                   Squiggles
C:   000003BA  A$Squiggles$1838                   Squiggles
C:   000003BC  A$Squiggles$1839                   Squiggles
C:   000003BE  A$Squiggles$1840                   Squiggles
C:   000003C1  A$Squiggles$1844                   Squiggles
C:   000003C1  C$i2c.h$179$1$81                   Squiggles
C:   000003C3  A$Squiggles$1845                   Squiggles
C:   000003C5  A$Squiggles$1849                   Squiggles
C:   000003C5  C$i2c.h$180$1$81                   Squiggles
C:   000003C5  XG$kpd_input$0$0                   Squiggles
C:   000003C6  A$Squiggles$1863                   Squiggles
C:   000003C6  C$i2c.h$189$1$81                   Squiggles
C:   000003C6  G$delay_time$0$0                   Squiggles
C:   000003C6  _delay_time                        Squiggles
C:   000003C8  A$Squiggles$1864                   Squiggles
C:   000003CA  A$Squiggles$1865                   Squiggles
C:   000003CC  A$Squiggles$1866                   Squiggles
C:   000003CD  A$Squiggles$1869                   Squiggles
C:   000003CD  C$i2c.h$192$1$86                   Squiggles
C:   000003CF  A$Squiggles$1870                   Squiggles
C:   000003D1  A$Squiggles$1871                   Squiggles
C:   000003D3  A$Squiggles$1872                   Squiggles
C:   000003D5  A$Squiggles$1874                   Squiggles
C:   000003D6  A$Squiggles$1875                   Squiggles
C:   000003D7  A$Squiggles$1876                   Squiggles
C:   000003D8  A$Squiggles$1877                   Squiggles
C:   000003D9  A$Squiggles$1878                   Squiggles
C:   000003DA  A$Squiggles$1879                   Squiggles
C:   000003DB  A$Squiggles$1880                   Squiggles
C:   000003DC  A$Squiggles$1881                   Squiggles
C:   000003DD  A$Squiggles$1882                   Squiggles
C:   000003DE  A$Squiggles$1883                   Squiggles
C:   000003E0  A$Squiggles$1884                   Squiggles
C:   000003E1  A$Squiggles$1885                   Squiggles
C:   000003E4  A$Squiggles$1886                   Squiggles
ASxxxx Linker V03.00 + NoICE + sdld,  page 40.
Hexadecimal  [32-Bits]

Area                                    Addr        Size        Decimal Bytes (Attributes)
--------------------------------        ----        ----        ------- ----- ------------
CSEG                                000000B9    000014B2 =        5298. bytes (REL,CON,CODE)

      Value  Global                              Global Defined In Module
      -----  --------------------------------   ------------------------
C:   000003E5  A$Squiggles$1887                   Squiggles
C:   000003E8  A$Squiggles$1888                   Squiggles
C:   000003E9  A$Squiggles$1889                   Squiggles
C:   000003EC  A$Squiggles$1890                   Squiggles
C:   000003ED  A$Squiggles$1892                   Squiggles
C:   000003EF  A$Squiggles$1896                   Squiggles
C:   000003EF  C$i2c.h$193$1$86                   Squiggles
C:   000003EF  XG$delay_time$0$0                  Squiggles
C:   000003F0  A$Squiggles$1910                   Squiggles
C:   000003F0  C$i2c.h$196$1$86                   Squiggles
C:   000003F0  C$i2c.h$198$1$88                   Squiggles
C:   000003F0  G$i2c_start$0$0                    Squiggles
C:   000003F0  _i2c_start                         Squiggles
C:   000003F3  A$Squiggles$1913                   Squiggles
C:   000003F3  C$i2c.h$199$1$88                   Squiggles
C:   000003F5  A$Squiggles$1917                   Squiggles
C:   000003F5  C$i2c.h$200$1$88                   Squiggles
C:   000003F8  A$Squiggles$1920                   Squiggles
C:   000003F8  C$i2c.h$201$1$88                   Squiggles
C:   000003FA  A$Squiggles$1923                   Squiggles
C:   000003FA  C$i2c.h$202$1$88                   Squiggles
C:   000003FC  A$Squiggles$1926                   Squiggles
C:   000003FC  C$i2c.h$203$1$88                   Squiggles
C:   000003FC  XG$i2c_start$0$0                   Squiggles
C:   000003FD  A$Squiggles$1939                   Squiggles
C:   000003FD  C$i2c.h$206$1$88                   Squiggles
C:   000003FD  G$i2c_write$0$0                    Squiggles
C:   000003FD  _i2c_write                         Squiggles
C:   00000400  A$Squiggles$1945                   Squiggles
C:   00000400  C$i2c.h$209$1$90                   Squiggles
C:   00000400  C$i2c.h$210$1$90                   Squiggles
C:   00000403  A$Squiggles$1946                   Squiggles
C:   00000405  A$Squiggles$1950                   Squiggles
C:   00000405  C$i2c.h$211$1$90                   Squiggles
C:   00000405  XG$i2c_write$0$0                   Squiggles
C:   00000406  A$Squiggles$1963                   Squiggles
C:   00000406  C$i2c.h$214$1$90                   Squiggles
C:   00000406  G$i2c_write_and_stop$0$0           Squiggles
C:   00000406  _i2c_write_and_stop                Squiggles
C:   00000409  A$Squiggles$1966                   Squiggles
C:   00000409  C$i2c.h$217$1$92                   Squiggles
C:   0000040B  A$Squiggles$1972                   Squiggles
C:   0000040B  C$i2c.h$218$1$92                   Squiggles
C:   0000040B  C$i2c.h$219$1$92                   Squiggles
C:   0000040E  A$Squiggles$1973                   Squiggles
C:   00000410  A$Squiggles$1977                   Squiggles
C:   00000410  C$i2c.h$220$1$92                   Squiggles
C:   00000410  XG$i2c_write_and_stop$0$0          Squiggles
C:   00000411  A$Squiggles$1993                   Squiggles
C:   00000411  C$i2c.h$223$1$92                   Squiggles
C:   00000411  C$i2c.h$226$1$94                   Squiggles
ASxxxx Linker V03.00 + NoICE + sdld,  page 41.
Hexadecimal  [32-Bits]

Area                                    Addr        Size        Decimal Bytes (Attributes)
--------------------------------        ----        ----        ------- ----- ------------
CSEG                                000000B9    000014B2 =        5298. bytes (REL,CON,CODE)

      Value  Global                              Global Defined In Module
      -----  --------------------------------   ------------------------
C:   00000411  G$i2c_read$0$0                     Squiggles
C:   00000411  _i2c_read                          Squiggles
C:   00000414  A$Squiggles$1996                   Squiggles
C:   00000414  C$i2c.h$227$1$94                   Squiggles
C:   00000417  A$Squiggles$1999                   Squiggles
C:   00000417  C$i2c.h$228$1$94                   Squiggles
C:   00000419  A$Squiggles$2004                   Squiggles
C:   00000419  C$i2c.h$229$1$94                   Squiggles
C:   00000419  C$i2c.h$230$1$94                   Squiggles
C:   00000419  XG$i2c_read$0$0                    Squiggles
C:   0000041A  A$Squiggles$2020                   Squiggles
C:   0000041A  C$i2c.h$233$1$94                   Squiggles
C:   0000041A  C$i2c.h$236$1$96                   Squiggles
C:   0000041A  G$i2c_read_and_stop$0$0            Squiggles
C:   0000041A  _i2c_read_and_stop                 Squiggles
C:   0000041D  A$Squiggles$2023                   Squiggles
C:   0000041D  C$i2c.h$237$1$96                   Squiggles
C:   0000041F  A$Squiggles$2026                   Squiggles
C:   0000041F  C$i2c.h$238$1$96                   Squiggles
C:   00000421  A$Squiggles$2029                   Squiggles
C:   00000421  C$i2c.h$239$1$96                   Squiggles
C:   00000423  A$Squiggles$2035                   Squiggles
C:   00000423  C$i2c.h$240$1$96                   Squiggles
C:   00000423  C$i2c.h$241$1$96                   Squiggles
C:   00000426  A$Squiggles$2036                   Squiggles
C:   00000428  A$Squiggles$2040                   Squiggles
C:   00000428  C$i2c.h$242$1$96                   Squiggles
C:   0000042A  A$Squiggles$2043                   Squiggles
C:   0000042A  C$i2c.h$243$1$96                   Squiggles
C:   0000042A  XG$i2c_read_and_stop$0$0           Squiggles
C:   0000042B  A$Squiggles$2060                   Squiggles
C:   0000042B  C$i2c.h$246$1$96                   Squiggles
C:   0000042B  G$i2c_write_data$0$0               Squiggles
C:   0000042B  _i2c_write_data                    Squiggles
C:   0000042D  A$Squiggles$2063                   Squiggles
C:   0000042D  C$i2c.h$250$1$98                   Squiggles
C:   0000042F  A$Squiggles$2064                   Squiggles
C:   00000432  A$Squiggles$2065                   Squiggles
C:   00000434  A$Squiggles$2068                   Squiggles
C:   00000434  C$i2c.h$251$1$98                   Squiggles
C:   00000436  A$Squiggles$2069                   Squiggles
C:   00000437  A$Squiggles$2070                   Squiggles
C:   00000439  A$Squiggles$2071                   Squiggles
C:   0000043C  A$Squiggles$2074                   Squiggles
C:   0000043C  C$i2c.h$252$1$98                   Squiggles
C:   0000043F  A$Squiggles$2075                   Squiggles
C:   00000442  A$Squiggles$2078                   Squiggles
C:   00000444  A$Squiggles$2080                   Squiggles
C:   00000446  A$Squiggles$2081                   Squiggles
C:   00000448  A$Squiggles$2082                   Squiggles
C:   00000449  A$Squiggles$2083                   Squiggles
ASxxxx Linker V03.00 + NoICE + sdld,  page 42.
Hexadecimal  [32-Bits]

Area                                    Addr        Size        Decimal Bytes (Attributes)
--------------------------------        ----        ----        ------- ----- ------------
CSEG                                000000B9    000014B2 =        5298. bytes (REL,CON,CODE)

      Value  Global                              Global Defined In Module
      -----  --------------------------------   ------------------------
C:   0000044C  A$Squiggles$2084                   Squiggles
C:   0000044D  A$Squiggles$2086                   Squiggles
C:   0000044F  A$Squiggles$2087                   Squiggles
C:   00000451  A$Squiggles$2088                   Squiggles
C:   00000452  A$Squiggles$2089                   Squiggles
C:   00000453  A$Squiggles$2090                   Squiggles
C:   00000454  A$Squiggles$2091                   Squiggles
C:   00000455  A$Squiggles$2092                   Squiggles
C:   00000457  A$Squiggles$2093                   Squiggles
C:   00000459  A$Squiggles$2094                   Squiggles
C:   0000045C  A$Squiggles$2095                   Squiggles
C:   0000045E  A$Squiggles$2096                   Squiggles
C:   00000460  A$Squiggles$2099                   Squiggles
C:   00000460  C$i2c.h$254$1$98                   Squiggles
C:   00000461  A$Squiggles$2100                   Squiggles
C:   00000463  A$Squiggles$2101                   Squiggles
C:   00000464  A$Squiggles$2102                   Squiggles
C:   00000465  A$Squiggles$2103                   Squiggles
C:   00000467  A$Squiggles$2104                   Squiggles
C:   00000468  A$Squiggles$2105                   Squiggles
C:   0000046A  A$Squiggles$2106                   Squiggles
C:   0000046C  A$Squiggles$2107                   Squiggles
C:   0000046E  A$Squiggles$2108                   Squiggles
C:   00000470  A$Squiggles$2109                   Squiggles
C:   00000473  A$Squiggles$2110                   Squiggles
C:   00000475  A$Squiggles$2111                   Squiggles
C:   00000477  A$Squiggles$2112                   Squiggles
C:   0000047A  A$Squiggles$2113                   Squiggles
C:   0000047C  A$Squiggles$2116                   Squiggles
C:   0000047C  C$i2c.h$253$1$98                   Squiggles
C:   0000047D  A$Squiggles$2117                   Squiggles
C:   0000047F  A$Squiggles$2121                   Squiggles
C:   0000047F  C$i2c.h$255$1$98                   Squiggles
C:   00000481  A$Squiggles$2122                   Squiggles
C:   00000483  A$Squiggles$2123                   Squiggles
C:   00000484  A$Squiggles$2124                   Squiggles
C:   00000487  A$Squiggles$2125                   Squiggles
C:   00000488  A$Squiggles$2127                   Squiggles
C:   00000489  A$Squiggles$2128                   Squiggles
C:   0000048B  A$Squiggles$2129                   Squiggles
C:   0000048C  A$Squiggles$2130                   Squiggles
C:   0000048D  A$Squiggles$2131                   Squiggles
C:   0000048F  A$Squiggles$2132                   Squiggles
C:   00000490  A$Squiggles$2133                   Squiggles
C:   00000492  A$Squiggles$2134                   Squiggles
C:   00000494  A$Squiggles$2135                   Squiggles
C:   00000496  A$Squiggles$2136                   Squiggles
C:   00000498  A$Squiggles$2137                   Squiggles
C:   0000049B  A$Squiggles$2138                   Squiggles
C:   0000049D  A$Squiggles$2139                   Squiggles
C:   000004A0  A$Squiggles$2142                   Squiggles
ASxxxx Linker V03.00 + NoICE + sdld,  page 43.
Hexadecimal  [32-Bits]

Area                                    Addr        Size        Decimal Bytes (Attributes)
--------------------------------        ----        ----        ------- ----- ------------
CSEG                                000000B9    000014B2 =        5298. bytes (REL,CON,CODE)

      Value  Global                              Global Defined In Module
      -----  --------------------------------   ------------------------
C:   000004A0  C$i2c.h$256$1$98                   Squiggles
C:   000004A0  XG$i2c_write_data$0$0              Squiggles
C:   000004A1  A$Squiggles$2159                   Squiggles
C:   000004A1  C$i2c.h$259$1$98                   Squiggles
C:   000004A1  G$i2c_read_data$0$0                Squiggles
C:   000004A1  _i2c_read_data                     Squiggles
C:   000004A3  A$Squiggles$2162                   Squiggles
C:   000004A3  C$i2c.h$262$1$100                  Squiggles
C:   000004A5  A$Squiggles$2163                   Squiggles
C:   000004A8  A$Squiggles$2164                   Squiggles
C:   000004AA  A$Squiggles$2167                   Squiggles
C:   000004AA  C$i2c.h$263$1$100                  Squiggles
C:   000004AC  A$Squiggles$2168                   Squiggles
C:   000004AE  A$Squiggles$2169                   Squiggles
C:   000004AF  A$Squiggles$2170                   Squiggles
C:   000004B1  A$Squiggles$2171                   Squiggles
C:   000004B3  A$Squiggles$2172                   Squiggles
C:   000004B6  A$Squiggles$2175                   Squiggles
C:   000004B6  C$i2c.h$264$1$100                  Squiggles
C:   000004B9  A$Squiggles$2176                   Squiggles
C:   000004BC  A$Squiggles$2179                   Squiggles
C:   000004BC  C$i2c.h$265$1$100                  Squiggles
C:   000004BF  A$Squiggles$2180                   Squiggles
C:   000004C1  A$Squiggles$2183                   Squiggles
C:   000004C1  C$i2c.h$266$1$100                  Squiggles
C:   000004C3  A$Squiggles$2184                   Squiggles
C:   000004C4  A$Squiggles$2185                   Squiggles
C:   000004C6  A$Squiggles$2186                   Squiggles
C:   000004C9  A$Squiggles$2189                   Squiggles
C:   000004CB  A$Squiggles$2191                   Squiggles
C:   000004CD  A$Squiggles$2192                   Squiggles
C:   000004CF  A$Squiggles$2193                   Squiggles
C:   000004D0  A$Squiggles$2194                   Squiggles
C:   000004D3  A$Squiggles$2195                   Squiggles
C:   000004D4  A$Squiggles$2197                   Squiggles
C:   000004D6  A$Squiggles$2198                   Squiggles
C:   000004D8  A$Squiggles$2199                   Squiggles
C:   000004D9  A$Squiggles$2200                   Squiggles
C:   000004DA  A$Squiggles$2201                   Squiggles
C:   000004DB  A$Squiggles$2202                   Squiggles
C:   000004DC  A$Squiggles$2203                   Squiggles
C:   000004DE  A$Squiggles$2204                   Squiggles
C:   000004E0  A$Squiggles$2205                   Squiggles
C:   000004E3  A$Squiggles$2206                   Squiggles
C:   000004E5  A$Squiggles$2207                   Squiggles
C:   000004E7  A$Squiggles$2210                   Squiggles
C:   000004E7  C$i2c.h$269$2$101                  Squiggles
C:   000004E9  A$Squiggles$2213                   Squiggles
C:   000004E9  C$i2c.h$270$2$101                  Squiggles
C:   000004EA  A$Squiggles$2214                   Squiggles
C:   000004EC  A$Squiggles$2215                   Squiggles
ASxxxx Linker V03.00 + NoICE + sdld,  page 44.
Hexadecimal  [32-Bits]

Area                                    Addr        Size        Decimal Bytes (Attributes)
--------------------------------        ----        ----        ------- ----- ------------
CSEG                                000000B9    000014B2 =        5298. bytes (REL,CON,CODE)

      Value  Global                              Global Defined In Module
      -----  --------------------------------   ------------------------
C:   000004ED  A$Squiggles$2216                   Squiggles
C:   000004EE  A$Squiggles$2217                   Squiggles
C:   000004F0  A$Squiggles$2218                   Squiggles
C:   000004F1  A$Squiggles$2219                   Squiggles
C:   000004F3  A$Squiggles$2220                   Squiggles
C:   000004F5  A$Squiggles$2221                   Squiggles
C:   000004F7  A$Squiggles$2222                   Squiggles
C:   000004F9  A$Squiggles$2223                   Squiggles
C:   000004FB  A$Squiggles$2224                   Squiggles
C:   000004FE  A$Squiggles$2225                   Squiggles
C:   00000500  A$Squiggles$2226                   Squiggles
C:   00000502  A$Squiggles$2227                   Squiggles
C:   00000504  A$Squiggles$2228                   Squiggles
C:   00000506  A$Squiggles$2229                   Squiggles
C:   00000508  A$Squiggles$2230                   Squiggles
C:   0000050A  A$Squiggles$2231                   Squiggles
C:   0000050C  A$Squiggles$2232                   Squiggles
C:   0000050E  A$Squiggles$2233                   Squiggles
C:   0000050F  A$Squiggles$2234                   Squiggles
C:   00000512  A$Squiggles$2237                   Squiggles
C:   00000512  C$i2c.h$267$1$100                  Squiggles
C:   00000513  A$Squiggles$2238                   Squiggles
C:   00000515  A$Squiggles$2242                   Squiggles
C:   00000515  C$i2c.h$272$1$100                  Squiggles
C:   00000517  A$Squiggles$2245                   Squiggles
C:   00000517  C$i2c.h$273$1$100                  Squiggles
C:   00000519  A$Squiggles$2246                   Squiggles
C:   0000051B  A$Squiggles$2247                   Squiggles
C:   0000051C  A$Squiggles$2248                   Squiggles
C:   0000051F  A$Squiggles$2249                   Squiggles
C:   00000520  A$Squiggles$2251                   Squiggles
C:   00000521  A$Squiggles$2252                   Squiggles
C:   00000523  A$Squiggles$2253                   Squiggles
C:   00000524  A$Squiggles$2254                   Squiggles
C:   00000525  A$Squiggles$2255                   Squiggles
C:   00000527  A$Squiggles$2256                   Squiggles
C:   00000528  A$Squiggles$2257                   Squiggles
C:   0000052A  A$Squiggles$2258                   Squiggles
C:   0000052C  A$Squiggles$2259                   Squiggles
C:   0000052E  A$Squiggles$2260                   Squiggles
C:   00000530  A$Squiggles$2261                   Squiggles
C:   00000533  A$Squiggles$2262                   Squiggles
C:   00000535  A$Squiggles$2263                   Squiggles
C:   00000537  A$Squiggles$2264                   Squiggles
C:   00000539  A$Squiggles$2265                   Squiggles
C:   0000053B  A$Squiggles$2266                   Squiggles
C:   0000053D  A$Squiggles$2267                   Squiggles
C:   0000053F  A$Squiggles$2268                   Squiggles
C:   00000541  A$Squiggles$2269                   Squiggles
C:   00000542  A$Squiggles$2270                   Squiggles
C:   00000545  A$Squiggles$2273                   Squiggles
ASxxxx Linker V03.00 + NoICE + sdld,  page 45.
Hexadecimal  [32-Bits]

Area                                    Addr        Size        Decimal Bytes (Attributes)
--------------------------------        ----        ----        ------- ----- ------------
CSEG                                000000B9    000014B2 =        5298. bytes (REL,CON,CODE)

      Value  Global                              Global Defined In Module
      -----  --------------------------------   ------------------------
C:   00000545  C$i2c.h$274$1$100                  Squiggles
C:   00000545  XG$i2c_read_data$0$0               Squiggles
C:   00000546  A$Squiggles$2288                   Squiggles
C:   00000546  C$i2c.h$283$1$100                  Squiggles
C:   00000546  C$i2c.h$287$1$103                  Squiggles
C:   00000546  G$Accel_Init$0$0                   Squiggles
C:   00000546  _Accel_Init                        Squiggles
C:   00000549  A$Squiggles$2291                   Squiggles
C:   00000549  C$i2c.h$289$1$103                  Squiggles
C:   0000054C  A$Squiggles$2292                   Squiggles
C:   0000054F  A$Squiggles$2293                   Squiggles
C:   00000552  A$Squiggles$2294                   Squiggles
C:   00000555  A$Squiggles$2295                   Squiggles
C:   00000558  A$Squiggles$2296                   Squiggles
C:   0000055B  A$Squiggles$2297                   Squiggles
C:   0000055E  A$Squiggles$2300                   Squiggles
C:   0000055E  C$i2c.h$290$1$103                  Squiggles
C:   00000561  A$Squiggles$2303                   Squiggles
C:   00000561  C$i2c.h$292$1$103                  Squiggles
C:   00000564  A$Squiggles$2304                   Squiggles
C:   00000567  A$Squiggles$2305                   Squiggles
C:   0000056A  A$Squiggles$2306                   Squiggles
C:   0000056D  A$Squiggles$2307                   Squiggles
C:   00000570  A$Squiggles$2308                   Squiggles
C:   00000573  A$Squiggles$2309                   Squiggles
C:   00000576  A$Squiggles$2312                   Squiggles
C:   00000576  C$i2c.h$293$1$103                  Squiggles
C:   00000579  A$Squiggles$2315                   Squiggles
C:   00000579  C$i2c.h$294$1$103                  Squiggles
C:   0000057C  A$Squiggles$2316                   Squiggles
C:   0000057F  A$Squiggles$2317                   Squiggles
C:   00000582  A$Squiggles$2318                   Squiggles
C:   00000585  A$Squiggles$2319                   Squiggles
C:   00000588  A$Squiggles$2320                   Squiggles
C:   0000058B  A$Squiggles$2321                   Squiggles
C:   0000058E  A$Squiggles$2324                   Squiggles
C:   0000058E  C$i2c.h$298$1$103                  Squiggles
C:   0000058E  XG$Accel_Init$0$0                  Squiggles
C:   0000058F  A$Squiggles$2337                   Squiggles
C:   0000058F  C$Squiggles.c$65$1$103             Squiggles
C:   0000058F  C$Squiggles.c$67$1$120             Squiggles
C:   0000058F  G$main$0$0                         Squiggles
C:   0000058F  _main                              Squiggles
C:   00000592  A$Squiggles$2340                   Squiggles
C:   00000592  C$Squiggles.c$68$1$120             Squiggles
C:   00000595  A$Squiggles$2343                   Squiggles
C:   00000595  C$Squiggles.c$69$1$120             Squiggles
C:   00000598  A$Squiggles$2346                   Squiggles
C:   00000598  C$Squiggles.c$70$1$120             Squiggles
C:   0000059B  A$Squiggles$2349                   Squiggles
C:   0000059B  C$Squiggles.c$71$1$120             Squiggles
ASxxxx Linker V03.00 + NoICE + sdld,  page 46.
Hexadecimal  [32-Bits]

Area                                    Addr        Size        Decimal Bytes (Attributes)
--------------------------------        ----        ----        ------- ----- ------------
CSEG                                000000B9    000014B2 =        5298. bytes (REL,CON,CODE)

      Value  Global                              Global Defined In Module
      -----  --------------------------------   ------------------------
C:   0000059E  A$Squiggles$2352                   Squiggles
C:   0000059E  C$Squiggles.c$72$1$120             Squiggles
C:   000005A1  A$Squiggles$2355                   Squiggles
C:   000005A1  C$Squiggles.c$73$1$120             Squiggles
C:   000005A4  A$Squiggles$2356                   Squiggles
C:   000005A7  A$Squiggles$2359                   Squiggles
C:   000005A7  C$Squiggles.c$74$1$120             Squiggles
C:   000005A9  A$Squiggles$2360                   Squiggles
C:   000005AB  A$Squiggles$2361                   Squiggles
C:   000005AD  A$Squiggles$2362                   Squiggles
C:   000005AF  A$Squiggles$2363                   Squiggles
C:   000005B1  A$Squiggles$2364                   Squiggles
C:   000005B3  A$Squiggles$2365                   Squiggles
C:   000005B6  A$Squiggles$2366                   Squiggles
C:   000005B8  A$Squiggles$2367                   Squiggles
C:   000005BA  A$Squiggles$2368                   Squiggles
C:   000005BC  A$Squiggles$2371                   Squiggles
C:   000005BC  C$Squiggles.c$75$1$120             Squiggles
C:   000005BF  A$Squiggles$2372                   Squiggles
C:   000005C2  A$Squiggles$2375                   Squiggles
C:   000005C2  C$Squiggles.c$76$1$120             Squiggles
C:   000005C5  A$Squiggles$2376                   Squiggles
C:   000005C8  A$Squiggles$2379                   Squiggles
C:   000005C8  C$Squiggles.c$77$1$120             Squiggles
C:   000005CB  A$Squiggles$2382                   Squiggles
C:   000005CB  C$Squiggles.c$78$1$120             Squiggles
C:   000005CC  A$Squiggles$2383                   Squiggles
C:   000005CE  A$Squiggles$2384                   Squiggles
C:   000005D0  A$Squiggles$2388                   Squiggles
C:   000005D0  C$Squiggles.c$79$1$120             Squiggles
C:   000005D1  A$Squiggles$2389                   Squiggles
C:   000005D3  A$Squiggles$2390                   Squiggles
C:   000005D5  A$Squiggles$2391                   Squiggles
C:   000005D7  A$Squiggles$2392                   Squiggles
C:   000005D9  A$Squiggles$2393                   Squiggles
C:   000005DB  A$Squiggles$2396                   Squiggles
C:   000005DB  C$Squiggles.c$80$1$120             Squiggles
C:   000005DE  A$Squiggles$2399                   Squiggles
C:   000005DE  C$Squiggles.c$81$1$120             Squiggles
C:   000005E0  A$Squiggles$2400                   Squiggles
C:   000005E2  A$Squiggles$2401                   Squiggles
C:   000005E4  A$Squiggles$2402                   Squiggles
C:   000005E6  A$Squiggles$2403                   Squiggles
C:   000005E8  A$Squiggles$2404                   Squiggles
C:   000005EA  A$Squiggles$2405                   Squiggles
C:   000005ED  A$Squiggles$2406                   Squiggles
C:   000005EF  A$Squiggles$2407                   Squiggles
C:   000005F1  A$Squiggles$2408                   Squiggles
C:   000005F3  A$Squiggles$2411                   Squiggles
C:   000005F3  C$Squiggles.c$82$1$120             Squiggles
C:   000005F6  A$Squiggles$2414                   Squiggles
ASxxxx Linker V03.00 + NoICE + sdld,  page 47.
Hexadecimal  [32-Bits]

Area                                    Addr        Size        Decimal Bytes (Attributes)
--------------------------------        ----        ----        ------- ----- ------------
CSEG                                000000B9    000014B2 =        5298. bytes (REL,CON,CODE)

      Value  Global                              Global Defined In Module
      -----  --------------------------------   ------------------------
C:   000005F6  C$Squiggles.c$83$1$120             Squiggles
C:   000005F9  A$Squiggles$2417                   Squiggles
C:   000005F9  C$Squiggles.c$84$1$120             Squiggles
C:   000005FB  A$Squiggles$2418                   Squiggles
C:   000005FD  A$Squiggles$2419                   Squiggles
C:   000005FF  A$Squiggles$2420                   Squiggles
C:   00000601  A$Squiggles$2421                   Squiggles
C:   00000603  A$Squiggles$2422                   Squiggles
C:   00000605  A$Squiggles$2423                   Squiggles
C:   00000608  A$Squiggles$2424                   Squiggles
C:   0000060A  A$Squiggles$2425                   Squiggles
C:   0000060C  A$Squiggles$2426                   Squiggles
C:   0000060E  A$Squiggles$2430                   Squiggles
C:   0000060E  C$Squiggles.c$87$2$121             Squiggles
C:   00000611  A$Squiggles$2431                   Squiggles
C:   00000614  A$Squiggles$2433                   Squiggles
C:   00000617  A$Squiggles$2434                   Squiggles
C:   0000061A  A$Squiggles$2438                   Squiggles
C:   0000061A  C$Squiggles.c$89$3$122             Squiggles
C:   0000061C  A$Squiggles$2439                   Squiggles
C:   0000061E  A$Squiggles$2442                   Squiggles
C:   0000061E  C$Squiggles.c$91$4$123             Squiggles
C:   00000621  A$Squiggles$2443                   Squiggles
C:   00000624  A$Squiggles$2444                   Squiggles
C:   00000627  A$Squiggles$2447                   Squiggles
C:   00000627  C$Squiggles.c$93$4$123             Squiggles
C:   00000629  A$Squiggles$2448                   Squiggles
C:   0000062B  A$Squiggles$2449                   Squiggles
C:   0000062D  A$Squiggles$2450                   Squiggles
C:   0000062F  A$Squiggles$2451                   Squiggles
C:   00000632  A$Squiggles$2452                   Squiggles
C:   00000634  A$Squiggles$2453                   Squiggles
C:   00000637  A$Squiggles$2454                   Squiggles
C:   00000639  A$Squiggles$2458                   Squiggles
C:   00000639  C$Squiggles.c$95$5$124             Squiggles
C:   0000063A  A$Squiggles$2459                   Squiggles
C:   0000063C  A$Squiggles$2460                   Squiggles
C:   0000063E  A$Squiggles$2461                   Squiggles
C:   00000640  A$Squiggles$2462                   Squiggles
C:   00000642  A$Squiggles$2463                   Squiggles
C:   00000644  A$Squiggles$2464                   Squiggles
C:   00000646  A$Squiggles$2465                   Squiggles
C:   00000648  A$Squiggles$2466                   Squiggles
C:   0000064A  A$Squiggles$2467                   Squiggles
C:   0000064D  A$Squiggles$2468                   Squiggles
C:   00000650  A$Squiggles$2469                   Squiggles
C:   00000652  A$Squiggles$2473                   Squiggles
C:   00000652  C$Squiggles.c$96$5$124             Squiggles
C:   00000655  A$Squiggles$2474                   Squiggles
C:   00000658  A$Squiggles$2478                   Squiggles
C:   00000658  C$Squiggles.c$98$5$124             Squiggles
ASxxxx Linker V03.00 + NoICE + sdld,  page 48.
Hexadecimal  [32-Bits]

Area                                    Addr        Size        Decimal Bytes (Attributes)
--------------------------------        ----        ----        ------- ----- ------------
CSEG                                000000B9    000014B2 =        5298. bytes (REL,CON,CODE)

      Value  Global                              Global Defined In Module
      -----  --------------------------------   ------------------------
C:   0000065B  A$Squiggles$2479                   Squiggles
C:   0000065D  A$Squiggles$2483                   Squiggles
C:   0000065D  C$Squiggles.c$102$5$125            Squiggles
C:   0000065E  A$Squiggles$2484                   Squiggles
C:   00000660  A$Squiggles$2485                   Squiggles
C:   00000662  A$Squiggles$2489                   Squiggles
C:   00000662  C$Squiggles.c$105$3$122            Squiggles
C:   00000664  A$Squiggles$2490                   Squiggles
C:   00000667  A$Squiggles$2493                   Squiggles
C:   00000667  C$Squiggles.c$107$4$126            Squiggles
C:   0000066A  A$Squiggles$2494                   Squiggles
C:   0000066D  A$Squiggles$2497                   Squiggles
C:   0000066D  C$Squiggles.c$108$1$120            Squiggles
C:   00000670  A$Squiggles$2498                   Squiggles
C:   00000673  A$Squiggles$2499                   Squiggles
C:   00000675  A$Squiggles$2500                   Squiggles
C:   00000677  A$Squiggles$2501                   Squiggles
C:   00000679  A$Squiggles$2502                   Squiggles
C:   0000067A  A$Squiggles$2503                   Squiggles
C:   0000067C  A$Squiggles$2504                   Squiggles
C:   0000067E  A$Squiggles$2505                   Squiggles
C:   00000680  A$Squiggles$2506                   Squiggles
C:   00000682  A$Squiggles$2507                   Squiggles
C:   00000685  A$Squiggles$2508                   Squiggles
C:   00000688  A$Squiggles$2509                   Squiggles
C:   0000068A  A$Squiggles$2510                   Squiggles
C:   0000068D  A$Squiggles$2511                   Squiggles
C:   0000068F  A$Squiggles$2512                   Squiggles
C:   00000691  A$Squiggles$2513                   Squiggles
C:   00000693  A$Squiggles$2514                   Squiggles
C:   00000694  A$Squiggles$2515                   Squiggles
C:   00000696  A$Squiggles$2516                   Squiggles
C:   00000698  A$Squiggles$2517                   Squiggles
C:   0000069A  A$Squiggles$2518                   Squiggles
C:   0000069C  A$Squiggles$2519                   Squiggles
C:   0000069E  A$Squiggles$2520                   Squiggles
C:   000006A0  A$Squiggles$2521                   Squiggles
C:   000006A1  A$Squiggles$2522                   Squiggles
C:   000006A4  A$Squiggles$2523                   Squiggles
C:   000006A7  A$Squiggles$2527                   Squiggles
C:   000006A7  C$Squiggles.c$110$3$122            Squiggles
C:   000006A9  A$Squiggles$2528                   Squiggles
C:   000006AB  A$Squiggles$2531                   Squiggles
C:   000006AB  C$Squiggles.c$112$4$127            Squiggles
C:   000006AD  A$Squiggles$2532                   Squiggles
C:   000006B0  A$Squiggles$2533                   Squiggles
C:   000006B3  A$Squiggles$2534                   Squiggles
C:   000006B6  A$Squiggles$2535                   Squiggles
C:   000006B9  A$Squiggles$2539                   Squiggles
C:   000006B9  C$Squiggles.c$114$4$127            Squiggles
C:   000006BC  A$Squiggles$2542                   Squiggles
ASxxxx Linker V03.00 + NoICE + sdld,  page 49.
Hexadecimal  [32-Bits]

Area                                    Addr        Size        Decimal Bytes (Attributes)
--------------------------------        ----        ----        ------- ----- ------------
CSEG                                000000B9    000014B2 =        5298. bytes (REL,CON,CODE)

      Value  Global                              Global Defined In Module
      -----  --------------------------------   ------------------------
C:   000006BC  C$Squiggles.c$115$4$127            Squiggles
C:   000006BF  A$Squiggles$2546                   Squiggles
C:   000006BF  C$Squiggles.c$117$3$122            Squiggles
C:   000006C1  A$Squiggles$2547                   Squiggles
C:   000006C4  A$Squiggles$2548                   Squiggles
C:   000006C6  A$Squiggles$2550                   Squiggles
C:   000006C9  A$Squiggles$2554                   Squiggles
C:   000006C9  C$Squiggles.c$119$4$128            Squiggles
C:   000006CB  A$Squiggles$2555                   Squiggles
C:   000006CD  A$Squiggles$2556                   Squiggles
C:   000006CF  A$Squiggles$2557                   Squiggles
C:   000006D1  A$Squiggles$2558                   Squiggles
C:   000006D3  A$Squiggles$2559                   Squiggles
C:   000006D5  A$Squiggles$2560                   Squiggles
C:   000006D7  A$Squiggles$2561                   Squiggles
C:   000006D9  A$Squiggles$2562                   Squiggles
C:   000006DC  A$Squiggles$2563                   Squiggles
C:   000006DE  A$Squiggles$2564                   Squiggles
C:   000006E0  A$Squiggles$2565                   Squiggles
C:   000006E2  A$Squiggles$2568                   Squiggles
C:   000006E2  C$Squiggles.c$120$1$120            Squiggles
C:   000006E5  A$Squiggles$2569                   Squiggles
C:   000006E8  A$Squiggles$2570                   Squiggles
C:   000006EB  A$Squiggles$2571                   Squiggles
C:   000006EE  A$Squiggles$2572                   Squiggles
C:   000006F1  A$Squiggles$2573                   Squiggles
C:   000006F3  A$Squiggles$2574                   Squiggles
C:   000006F5  A$Squiggles$2575                   Squiggles
C:   000006F7  A$Squiggles$2576                   Squiggles
C:   000006F9  A$Squiggles$2577                   Squiggles
C:   000006FB  A$Squiggles$2578                   Squiggles
C:   000006FD  A$Squiggles$2579                   Squiggles
C:   000006FF  A$Squiggles$2580                   Squiggles
C:   00000701  A$Squiggles$2581                   Squiggles
C:   00000703  A$Squiggles$2582                   Squiggles
C:   00000705  A$Squiggles$2583                   Squiggles
C:   00000708  A$Squiggles$2584                   Squiggles
C:   0000070A  A$Squiggles$2585                   Squiggles
C:   0000070C  A$Squiggles$2586                   Squiggles
C:   0000070E  A$Squiggles$2589                   Squiggles
C:   0000070E  C$Squiggles.c$121$4$128            Squiggles
C:   00000710  A$Squiggles$2590                   Squiggles
C:   00000712  A$Squiggles$2591                   Squiggles
C:   00000714  A$Squiggles$2592                   Squiggles
C:   00000716  A$Squiggles$2593                   Squiggles
C:   00000718  A$Squiggles$2594                   Squiggles
C:   0000071A  A$Squiggles$2595                   Squiggles
C:   0000071C  A$Squiggles$2596                   Squiggles
C:   0000071E  A$Squiggles$2597                   Squiggles
C:   00000720  A$Squiggles$2598                   Squiggles
C:   00000722  A$Squiggles$2599                   Squiggles
ASxxxx Linker V03.00 + NoICE + sdld,  page 50.
Hexadecimal  [32-Bits]

Area                                    Addr        Size        Decimal Bytes (Attributes)
--------------------------------        ----        ----        ------- ----- ------------
CSEG                                000000B9    000014B2 =        5298. bytes (REL,CON,CODE)

      Value  Global                              Global Defined In Module
      -----  --------------------------------   ------------------------
C:   00000725  A$Squiggles$2600                   Squiggles
C:   00000727  A$Squiggles$2601                   Squiggles
C:   00000729  A$Squiggles$2602                   Squiggles
C:   0000072B  A$Squiggles$2605                   Squiggles
C:   0000072B  C$Squiggles.c$122$4$128            Squiggles
C:   0000072D  A$Squiggles$2606                   Squiggles
C:   0000072F  A$Squiggles$2607                   Squiggles
C:   00000731  A$Squiggles$2608                   Squiggles
C:   00000733  A$Squiggles$2609                   Squiggles
C:   00000735  A$Squiggles$2610                   Squiggles
C:   00000737  A$Squiggles$2611                   Squiggles
C:   00000739  A$Squiggles$2612                   Squiggles
C:   0000073B  A$Squiggles$2613                   Squiggles
C:   0000073E  A$Squiggles$2614                   Squiggles
C:   00000740  A$Squiggles$2615                   Squiggles
C:   00000742  A$Squiggles$2616                   Squiggles
C:   00000744  A$Squiggles$2619                   Squiggles
C:   00000744  C$Squiggles.c$123$1$120            Squiggles
C:   00000747  A$Squiggles$2620                   Squiggles
C:   0000074A  A$Squiggles$2621                   Squiggles
C:   0000074D  A$Squiggles$2622                   Squiggles
C:   00000750  A$Squiggles$2623                   Squiggles
C:   00000753  A$Squiggles$2624                   Squiggles
C:   00000755  A$Squiggles$2625                   Squiggles
C:   00000757  A$Squiggles$2626                   Squiggles
C:   00000759  A$Squiggles$2627                   Squiggles
C:   0000075B  A$Squiggles$2628                   Squiggles
C:   0000075D  A$Squiggles$2629                   Squiggles
C:   0000075F  A$Squiggles$2630                   Squiggles
C:   00000761  A$Squiggles$2631                   Squiggles
C:   00000763  A$Squiggles$2632                   Squiggles
C:   00000765  A$Squiggles$2633                   Squiggles
C:   00000767  A$Squiggles$2634                   Squiggles
C:   0000076A  A$Squiggles$2635                   Squiggles
C:   0000076C  A$Squiggles$2636                   Squiggles
C:   0000076E  A$Squiggles$2637                   Squiggles
C:   00000770  A$Squiggles$2640                   Squiggles
C:   00000770  C$Squiggles.c$124$4$128            Squiggles
C:   00000772  A$Squiggles$2641                   Squiggles
C:   00000774  A$Squiggles$2642                   Squiggles
C:   00000776  A$Squiggles$2643                   Squiggles
C:   00000778  A$Squiggles$2644                   Squiggles
C:   0000077A  A$Squiggles$2645                   Squiggles
C:   0000077C  A$Squiggles$2646                   Squiggles
C:   0000077E  A$Squiggles$2647                   Squiggles
C:   00000780  A$Squiggles$2648                   Squiggles
C:   00000782  A$Squiggles$2649                   Squiggles
C:   00000784  A$Squiggles$2650                   Squiggles
C:   00000787  A$Squiggles$2651                   Squiggles
C:   00000789  A$Squiggles$2652                   Squiggles
C:   0000078B  A$Squiggles$2653                   Squiggles
ASxxxx Linker V03.00 + NoICE + sdld,  page 51.
Hexadecimal  [32-Bits]

Area                                    Addr        Size        Decimal Bytes (Attributes)
--------------------------------        ----        ----        ------- ----- ------------
CSEG                                000000B9    000014B2 =        5298. bytes (REL,CON,CODE)

      Value  Global                              Global Defined In Module
      -----  --------------------------------   ------------------------
C:   0000078D  A$Squiggles$2654                   Squiggles
C:   00000790  A$Squiggles$2658                   Squiggles
C:   00000790  C$Squiggles.c$129$2$121            Squiggles
C:   00000793  A$Squiggles$2659                   Squiggles
C:   00000796  A$Squiggles$2660                   Squiggles
C:   00000799  A$Squiggles$2665                   Squiggles
C:   00000799  C$Squiggles.c$131$3$129            Squiggles
C:   0000079C  A$Squiggles$2666                   Squiggles
C:   0000079F  A$Squiggles$2669                   Squiggles
C:   0000079F  C$Squiggles.c$132$3$129            Squiggles
C:   000007A2  A$Squiggles$2670                   Squiggles
C:   000007A5  A$Squiggles$2671                   Squiggles
C:   000007A8  A$Squiggles$2674                   Squiggles
C:   000007A8  C$Squiggles.c$135$1$120            Squiggles
C:   000007A8  XG$main$0$0                        Squiggles
C:   000007A9  A$Squiggles$2687                   Squiggles
C:   000007A9  C$Squiggles.c$139$1$120            Squiggles
C:   000007A9  C$Squiggles.c$141$1$131            Squiggles
C:   000007A9  G$Port_Init$0$0                    Squiggles
C:   000007A9  _Port_Init                         Squiggles
C:   000007AC  A$Squiggles$2690                   Squiggles
C:   000007AC  C$Squiggles.c$142$1$131            Squiggles
C:   000007AF  A$Squiggles$2693                   Squiggles
C:   000007AF  C$Squiggles.c$143$1$131            Squiggles
C:   000007B2  A$Squiggles$2696                   Squiggles
C:   000007B2  C$Squiggles.c$144$1$131            Squiggles
C:   000007B5  A$Squiggles$2699                   Squiggles
C:   000007B5  C$Squiggles.c$145$1$131            Squiggles
C:   000007B7  A$Squiggles$2700                   Squiggles
C:   000007B9  A$Squiggles$2701                   Squiggles
C:   000007BA  A$Squiggles$2702                   Squiggles
C:   000007BC  A$Squiggles$2705                   Squiggles
C:   000007BC  C$Squiggles.c$146$1$131            Squiggles
C:   000007BF  A$Squiggles$2708                   Squiggles
C:   000007BF  C$Squiggles.c$147$1$131            Squiggles
C:   000007C1  A$Squiggles$2709                   Squiggles
C:   000007C3  A$Squiggles$2710                   Squiggles
C:   000007C4  A$Squiggles$2711                   Squiggles
C:   000007C6  A$Squiggles$2714                   Squiggles
C:   000007C6  C$Squiggles.c$149$1$131            Squiggles
C:   000007C6  XG$Port_Init$0$0                   Squiggles
C:   000007C7  A$Squiggles$2727                   Squiggles
C:   000007C7  C$Squiggles.c$153$1$131            Squiggles
C:   000007C7  C$Squiggles.c$155$1$133            Squiggles
C:   000007C7  G$Interrupt_Init$0$0               Squiggles
C:   000007C7  _Interrupt_Init                    Squiggles
C:   000007CA  A$Squiggles$2730                   Squiggles
C:   000007CA  C$Squiggles.c$156$1$133            Squiggles
C:   000007CD  A$Squiggles$2733                   Squiggles
C:   000007CD  C$Squiggles.c$157$1$133            Squiggles
C:   000007CF  A$Squiggles$2736                   Squiggles
ASxxxx Linker V03.00 + NoICE + sdld,  page 52.
Hexadecimal  [32-Bits]

Area                                    Addr        Size        Decimal Bytes (Attributes)
--------------------------------        ----        ----        ------- ----- ------------
CSEG                                000000B9    000014B2 =        5298. bytes (REL,CON,CODE)

      Value  Global                              Global Defined In Module
      -----  --------------------------------   ------------------------
C:   000007CF  C$Squiggles.c$158$1$133            Squiggles
C:   000007CF  XG$Interrupt_Init$0$0              Squiggles
C:   000007D0  A$Squiggles$2749                   Squiggles
C:   000007D0  C$Squiggles.c$162$1$133            Squiggles
C:   000007D0  C$Squiggles.c$164$1$135            Squiggles
C:   000007D0  G$PCA_Init$0$0                     Squiggles
C:   000007D0  _PCA_Init                          Squiggles
C:   000007D3  A$Squiggles$2752                   Squiggles
C:   000007D3  C$Squiggles.c$165$1$135            Squiggles
C:   000007D6  A$Squiggles$2755                   Squiggles
C:   000007D6  C$Squiggles.c$166$1$135            Squiggles
C:   000007D9  A$Squiggles$2758                   Squiggles
C:   000007D9  C$Squiggles.c$167$1$135            Squiggles
C:   000007DC  A$Squiggles$2761                   Squiggles
C:   000007DC  C$Squiggles.c$168$1$135            Squiggles
C:   000007DC  XG$PCA_Init$0$0                    Squiggles
C:   000007DD  A$Squiggles$2774                   Squiggles
C:   000007DD  C$Squiggles.c$172$1$135            Squiggles
C:   000007DD  C$Squiggles.c$174$1$137            Squiggles
C:   000007DD  G$SMB0_Init$0$0                    Squiggles
C:   000007DD  _SMB0_Init                         Squiggles
C:   000007E0  A$Squiggles$2777                   Squiggles
C:   000007E0  C$Squiggles.c$175$1$137            Squiggles
C:   000007E2  A$Squiggles$2780                   Squiggles
C:   000007E2  C$Squiggles.c$176$1$137            Squiggles
C:   000007E2  XG$SMB0_Init$0$0                   Squiggles
C:   000007E3  A$Squiggles$2791                   Squiggles
C:   000007E3  C$Squiggles.c$180$1$137            Squiggles
C:   000007E3  G$PCA_ISR$0$0                      Squiggles
C:   000007E3  _PCA_ISR                           Squiggles
C:   000007E5  A$Squiggles$2792                   Squiggles
C:   000007E7  A$Squiggles$2797                   Squiggles
C:   000007E7  C$Squiggles.c$182$1$139            Squiggles
C:   000007E7  C$Squiggles.c$184$2$140            Squiggles
C:   000007EA  A$Squiggles$2798                   Squiggles
C:   000007EC  A$Squiggles$2802                   Squiggles
C:   000007EC  C$Squiggles.c$185$2$140            Squiggles
C:   000007EE  A$Squiggles$2803                   Squiggles
C:   000007EF  A$Squiggles$2804                   Squiggles
C:   000007F2  A$Squiggles$2805                   Squiggles
C:   000007F4  A$Squiggles$2809                   Squiggles
C:   000007F4  C$Squiggles.c$186$2$140            Squiggles
C:   000007F7  A$Squiggles$2810                   Squiggles
C:   000007FA  A$Squiggles$2813                   Squiggles
C:   000007FA  C$Squiggles.c$187$2$140            Squiggles
C:   000007FB  A$Squiggles$2814                   Squiggles
C:   000007FD  A$Squiggles$2815                   Squiggles
C:   000007FF  A$Squiggles$2816                   Squiggles
C:   00000800  A$Squiggles$2817                   Squiggles
C:   00000802  A$Squiggles$2818                   Squiggles
C:   00000804  A$Squiggles$2821                   Squiggles
ASxxxx Linker V03.00 + NoICE + sdld,  page 53.
Hexadecimal  [32-Bits]

Area                                    Addr        Size        Decimal Bytes (Attributes)
--------------------------------        ----        ----        ------- ----- ------------
CSEG                                000000B9    000014B2 =        5298. bytes (REL,CON,CODE)

      Value  Global                              Global Defined In Module
      -----  --------------------------------   ------------------------
C:   00000804  C$Squiggles.c$189$3$141            Squiggles
C:   00000805  A$Squiggles$2822                   Squiggles
C:   00000807  A$Squiggles$2823                   Squiggles
C:   00000809  A$Squiggles$2826                   Squiggles
C:   00000809  C$Squiggles.c$190$3$141            Squiggles
C:   0000080B  A$Squiggles$2828                   Squiggles
C:   0000080E  A$Squiggles$2829                   Squiggles
C:   00000810  A$Squiggles$2834                   Squiggles
C:   00000810  C$Squiggles.c$192$2$140            Squiggles
C:   00000812  A$Squiggles$2837                   Squiggles
C:   00000812  C$Squiggles.c$193$2$140            Squiggles
C:   00000814  A$Squiggles$2838                   Squiggles
C:   00000816  A$Squiggles$2839                   Squiggles
C:   00000818  A$Squiggles$2842                   Squiggles
C:   00000818  C$Squiggles.c$195$3$142            Squiggles
C:   0000081B  A$Squiggles$2845                   Squiggles
C:   0000081B  C$Squiggles.c$196$3$142            Squiggles
C:   0000081E  A$Squiggles$2849                   Squiggles
C:   0000081E  C$Squiggles.c$198$2$140            Squiggles
C:   00000820  A$Squiggles$2852                   Squiggles
C:   00000820  C$Squiggles.c$199$2$140            Squiggles
C:   00000822  A$Squiggles$2853                   Squiggles
C:   00000825  A$Squiggles$2854                   Squiggles
C:   00000828  A$Squiggles$2858                   Squiggles
C:   00000828  C$Squiggles.c$200$2$140            Squiggles
C:   0000082A  A$Squiggles$2861                   Squiggles
C:   0000082A  C$Squiggles.c$201$2$140            Squiggles
C:   0000082C  A$Squiggles$2862                   Squiggles
C:   0000082F  A$Squiggles$2863                   Squiggles
C:   00000832  A$Squiggles$2867                   Squiggles
C:   00000832  C$Squiggles.c$202$2$140            Squiggles
C:   00000834  A$Squiggles$2870                   Squiggles
C:   00000834  C$Squiggles.c$203$2$140            Squiggles
C:   00000836  A$Squiggles$2871                   Squiggles
C:   00000838  A$Squiggles$2872                   Squiggles
C:   0000083A  A$Squiggles$2875                   Squiggles
C:   0000083A  C$Squiggles.c$205$3$143            Squiggles
C:   0000083D  A$Squiggles$2878                   Squiggles
C:   0000083D  C$Squiggles.c$206$3$143            Squiggles
C:   00000840  A$Squiggles$2879                   Squiggles
C:   00000842  A$Squiggles$2883                   Squiggles
C:   00000842  C$Squiggles.c$209$1$139            Squiggles
C:   00000845  A$Squiggles$2885                   Squiggles
C:   00000847  A$Squiggles$2886                   Squiggles
C:   00000849  A$Squiggles$2889                   Squiggles
C:   00000849  C$Squiggles.c$210$1$139            Squiggles
C:   00000849  XG$PCA_ISR$0$0                     Squiggles
C:   0000084A  A$Squiggles$2906                   Squiggles
C:   0000084A  C$Squiggles.c$215$1$139            Squiggles
C:   0000084A  C$Squiggles.c$217$1$145            Squiggles
C:   0000084A  G$ADC_Init$0$0                     Squiggles
ASxxxx Linker V03.00 + NoICE + sdld,  page 54.
Hexadecimal  [32-Bits]

Area                                    Addr        Size        Decimal Bytes (Attributes)
--------------------------------        ----        ----        ------- ----- ------------
CSEG                                000000B9    000014B2 =        5298. bytes (REL,CON,CODE)

      Value  Global                              Global Defined In Module
      -----  --------------------------------   ------------------------
C:   0000084A  _ADC_Init                          Squiggles
C:   0000084D  A$Squiggles$2909                   Squiggles
C:   0000084D  C$Squiggles.c$218$1$145            Squiggles
C:   00000850  A$Squiggles$2912                   Squiggles
C:   00000850  C$Squiggles.c$219$1$145            Squiggles
C:   00000853  A$Squiggles$2915                   Squiggles
C:   00000853  C$Squiggles.c$220$1$145            Squiggles
C:   00000853  XG$ADC_Init$0$0                    Squiggles
C:   00000854  A$Squiggles$2928                   Squiggles
C:   00000854  C$Squiggles.c$224$1$145            Squiggles
C:   00000854  G$read_AD_input$0$0                Squiggles
C:   00000854  _read_AD_input                     Squiggles
C:   00000857  A$Squiggles$2931                   Squiggles
C:   00000857  C$Squiggles.c$227$1$147            Squiggles
C:   00000859  A$Squiggles$2932                   Squiggles
C:   0000085B  A$Squiggles$2933                   Squiggles
C:   0000085C  A$Squiggles$2934                   Squiggles
C:   0000085E  A$Squiggles$2937                   Squiggles
C:   0000085E  C$Squiggles.c$228$1$147            Squiggles
C:   00000861  A$Squiggles$2941                   Squiggles
C:   00000861  C$Squiggles.c$230$1$147            Squiggles
C:   00000863  A$Squiggles$2942                   Squiggles
C:   00000866  A$Squiggles$2945                   Squiggles
C:   00000866  C$Squiggles.c$232$1$147            Squiggles
C:   00000869  A$Squiggles$2948                   Squiggles
C:   00000869  C$Squiggles.c$233$1$147            Squiggles
C:   00000869  XG$read_AD_input$0$0               Squiggles
C:   0000086A  A$Squiggles$2963                   Squiggles
C:   0000086A  C$Squiggles.c$237$1$147            Squiggles
C:   0000086A  C$Squiggles.c$240$1$149            Squiggles
C:   0000086A  G$Pick_Heading$0$0                 Squiggles
C:   0000086A  _Pick_Heading                      Squiggles
C:   0000086D  A$Squiggles$2966                   Squiggles
C:   0000086D  C$Squiggles.c$241$1$149            Squiggles
C:   0000086F  A$Squiggles$2967                   Squiggles
C:   00000871  A$Squiggles$2968                   Squiggles
C:   00000873  A$Squiggles$2969                   Squiggles
C:   00000875  A$Squiggles$2970                   Squiggles
C:   00000877  A$Squiggles$2971                   Squiggles
C:   00000879  A$Squiggles$2972                   Squiggles
C:   0000087C  A$Squiggles$2973                   Squiggles
C:   0000087E  A$Squiggles$2974                   Squiggles
C:   00000880  A$Squiggles$2975                   Squiggles
C:   00000882  A$Squiggles$2978                   Squiggles
C:   00000882  C$Squiggles.c$242$1$149            Squiggles
C:   00000885  A$Squiggles$2979                   Squiggles
C:   00000888  A$Squiggles$2980                   Squiggles
C:   0000088A  A$Squiggles$2981                   Squiggles
C:   0000088C  A$Squiggles$2984                   Squiggles
C:   0000088C  C$Squiggles.c$243$1$149            Squiggles
C:   0000088E  A$Squiggles$2985                   Squiggles
ASxxxx Linker V03.00 + NoICE + sdld,  page 55.
Hexadecimal  [32-Bits]

Area                                    Addr        Size        Decimal Bytes (Attributes)
--------------------------------        ----        ----        ------- ----- ------------
CSEG                                000000B9    000014B2 =        5298. bytes (REL,CON,CODE)

      Value  Global                              Global Defined In Module
      -----  --------------------------------   ------------------------
C:   00000890  A$Squiggles$2987                   Squiggles
C:   00000891  A$Squiggles$2988                   Squiggles
C:   00000893  A$Squiggles$2989                   Squiggles
C:   00000894  A$Squiggles$2990                   Squiggles
C:   00000896  A$Squiggles$2991                   Squiggles
C:   00000898  A$Squiggles$2992                   Squiggles
C:   0000089B  A$Squiggles$2993                   Squiggles
C:   0000089D  A$Squiggles$2994                   Squiggles
C:   0000089F  A$Squiggles$2997                   Squiggles
C:   0000089F  C$Squiggles.c$245$2$150            Squiggles
C:   000008A0  A$Squiggles$2998                   Squiggles
C:   000008A2  A$Squiggles$2999                   Squiggles
C:   000008A3  A$Squiggles$3000                   Squiggles
C:   000008A4  A$Squiggles$3001                   Squiggles
C:   000008A6  A$Squiggles$3002                   Squiggles
C:   000008A7  A$Squiggles$3005                   Squiggles
C:   000008A7  C$Squiggles.c$247$1$149            Squiggles
C:   000008A9  A$Squiggles$3007                   Squiggles
C:   000008AB  A$Squiggles$3008                   Squiggles
C:   000008AD  A$Squiggles$3009                   Squiggles
C:   000008AF  A$Squiggles$3010                   Squiggles
C:   000008B1  A$Squiggles$3012                   Squiggles
C:   000008B2  A$Squiggles$3013                   Squiggles
C:   000008B5  A$Squiggles$3016                   Squiggles
C:   000008B5  C$Squiggles.c$249$2$151            Squiggles
C:   000008B7  A$Squiggles$3017                   Squiggles
C:   000008B8  A$Squiggles$3018                   Squiggles
C:   000008B9  A$Squiggles$3019                   Squiggles
C:   000008BB  A$Squiggles$3020                   Squiggles
C:   000008BC  A$Squiggles$3021                   Squiggles
C:   000008BD  A$Squiggles$3022                   Squiggles
C:   000008BF  A$Squiggles$3024                   Squiggles
C:   000008C1  A$Squiggles$3025                   Squiggles
C:   000008C3  A$Squiggles$3028                   Squiggles
C:   000008C3  C$Squiggles.c$251$1$149            Squiggles
C:   000008C5  A$Squiggles$3029                   Squiggles
C:   000008C7  A$Squiggles$3030                   Squiggles
C:   000008CA  A$Squiggles$3031                   Squiggles
C:   000008CC  A$Squiggles$3032                   Squiggles
C:   000008CE  A$Squiggles$3035                   Squiggles
C:   000008CE  C$Squiggles.c$252$1$149            Squiggles
C:   000008D0  A$Squiggles$3036                   Squiggles
C:   000008D2  A$Squiggles$3039                   Squiggles
C:   000008D2  C$Squiggles.c$253$1$149            Squiggles
C:   000008D4  A$Squiggles$3040                   Squiggles
C:   000008D6  A$Squiggles$3041                   Squiggles
C:   000008D8  A$Squiggles$3042                   Squiggles
C:   000008DA  A$Squiggles$3043                   Squiggles
C:   000008DC  A$Squiggles$3044                   Squiggles
C:   000008DE  A$Squiggles$3045                   Squiggles
C:   000008E1  A$Squiggles$3046                   Squiggles
ASxxxx Linker V03.00 + NoICE + sdld,  page 56.
Hexadecimal  [32-Bits]

Area                                    Addr        Size        Decimal Bytes (Attributes)
--------------------------------        ----        ----        ------- ----- ------------
CSEG                                000000B9    000014B2 =        5298. bytes (REL,CON,CODE)

      Value  Global                              Global Defined In Module
      -----  --------------------------------   ------------------------
C:   000008E3  A$Squiggles$3047                   Squiggles
C:   000008E5  A$Squiggles$3048                   Squiggles
C:   000008E7  A$Squiggles$3051                   Squiggles
C:   000008E7  C$Squiggles.c$254$1$149            Squiggles
C:   000008E7  XG$Pick_Heading$0$0                Squiggles
C:   000008E8  A$Squiggles$3066                   Squiggles
C:   000008E8  C$Squiggles.c$258$1$149            Squiggles
C:   000008E8  C$Squiggles.c$261$1$153            Squiggles
C:   000008E8  G$Pick_Compass_Gain$0$0            Squiggles
C:   000008E8  _Pick_Compass_Gain                 Squiggles
C:   000008EB  A$Squiggles$3069                   Squiggles
C:   000008EB  C$Squiggles.c$262$1$153            Squiggles
C:   000008ED  A$Squiggles$3070                   Squiggles
C:   000008EF  A$Squiggles$3071                   Squiggles
C:   000008F1  A$Squiggles$3072                   Squiggles
C:   000008F3  A$Squiggles$3073                   Squiggles
C:   000008F5  A$Squiggles$3074                   Squiggles
C:   000008F7  A$Squiggles$3075                   Squiggles
C:   000008FA  A$Squiggles$3076                   Squiggles
C:   000008FC  A$Squiggles$3077                   Squiggles
C:   000008FE  A$Squiggles$3078                   Squiggles
C:   00000900  A$Squiggles$3081                   Squiggles
C:   00000900  C$Squiggles.c$263$1$153            Squiggles
C:   00000903  A$Squiggles$3082                   Squiggles
C:   00000906  A$Squiggles$3083                   Squiggles
C:   00000908  A$Squiggles$3084                   Squiggles
C:   0000090A  A$Squiggles$3087                   Squiggles
C:   0000090A  C$Squiggles.c$264$1$153            Squiggles
C:   0000090C  A$Squiggles$3088                   Squiggles
C:   0000090E  A$Squiggles$3089                   Squiggles
C:   00000911  A$Squiggles$3090                   Squiggles
C:   00000913  A$Squiggles$3091                   Squiggles
C:   00000915  A$Squiggles$3094                   Squiggles
C:   00000915  C$Squiggles.c$265$1$153            Squiggles
C:   00000918  A$Squiggles$3095                   Squiggles
C:   0000091B  A$Squiggles$3096                   Squiggles
C:   0000091D  A$Squiggles$3097                   Squiggles
C:   0000091F  A$Squiggles$3098                   Squiggles
C:   00000922  A$Squiggles$3099                   Squiggles
C:   00000925  A$Squiggles$3100                   Squiggles
C:   00000928  A$Squiggles$3101                   Squiggles
C:   0000092B  A$Squiggles$3102                   Squiggles
C:   0000092E  A$Squiggles$3103                   Squiggles
C:   00000930  A$Squiggles$3106                   Squiggles
C:   00000930  C$Squiggles.c$266$1$153            Squiggles
C:   00000932  A$Squiggles$3107                   Squiggles
C:   00000934  A$Squiggles$3108                   Squiggles
C:   00000936  A$Squiggles$3109                   Squiggles
C:   00000938  A$Squiggles$3110                   Squiggles
C:   0000093A  A$Squiggles$3111                   Squiggles
C:   0000093C  A$Squiggles$3112                   Squiggles
ASxxxx Linker V03.00 + NoICE + sdld,  page 57.
Hexadecimal  [32-Bits]

Area                                    Addr        Size        Decimal Bytes (Attributes)
--------------------------------        ----        ----        ------- ----- ------------
CSEG                                000000B9    000014B2 =        5298. bytes (REL,CON,CODE)

      Value  Global                              Global Defined In Module
      -----  --------------------------------   ------------------------
C:   0000093F  A$Squiggles$3113                   Squiggles
C:   00000941  A$Squiggles$3114                   Squiggles
C:   00000943  A$Squiggles$3115                   Squiggles
C:   00000945  A$Squiggles$3118                   Squiggles
C:   00000945  C$Squiggles.c$267$1$153            Squiggles
C:   00000945  XG$Pick_Compass_Gain$0$0           Squiggles
C:   00000946  A$Squiggles$3135                   Squiggles
C:   00000946  C$Squiggles.c$271$1$153            Squiggles
C:   00000946  C$Squiggles.c$276$1$155            Squiggles
C:   00000946  G$read_compass$0$0                 Squiggles
C:   00000946  _read_compass                      Squiggles
C:   00000949  A$Squiggles$3136                   Squiggles
C:   0000094C  A$Squiggles$3137                   Squiggles
C:   0000094F  A$Squiggles$3138                   Squiggles
C:   00000952  A$Squiggles$3139                   Squiggles
C:   00000955  A$Squiggles$3140                   Squiggles
C:   00000958  A$Squiggles$3141                   Squiggles
C:   0000095B  A$Squiggles$3144                   Squiggles
C:   0000095B  C$Squiggles.c$277$1$155            Squiggles
C:   0000095D  A$Squiggles$3145                   Squiggles
C:   0000095F  A$Squiggles$3146                   Squiggles
C:   00000961  A$Squiggles$3147                   Squiggles
C:   00000963  A$Squiggles$3148                   Squiggles
C:   00000964  A$Squiggles$3149                   Squiggles
C:   00000965  A$Squiggles$3150                   Squiggles
C:   00000967  A$Squiggles$3151                   Squiggles
C:   00000968  A$Squiggles$3152                   Squiggles
C:   00000969  A$Squiggles$3153                   Squiggles
C:   0000096B  A$Squiggles$3158                   Squiggles
C:   0000096B  C$Squiggles.c$278$1$155            Squiggles
C:   0000096B  C$Squiggles.c$279$1$155            Squiggles
C:   0000096B  XG$read_compass$0$0                Squiggles
C:   0000096C  A$Squiggles$3174                   Squiggles
C:   0000096C  C$Squiggles.c$283$1$155            Squiggles
C:   0000096C  C$Squiggles.c$287$1$157            Squiggles
C:   0000096C  G$read_ranger$0$0                  Squiggles
C:   0000096C  _read_ranger                       Squiggles
C:   0000096F  A$Squiggles$3175                   Squiggles
C:   00000972  A$Squiggles$3176                   Squiggles
C:   00000975  A$Squiggles$3177                   Squiggles
C:   00000978  A$Squiggles$3178                   Squiggles
C:   0000097B  A$Squiggles$3179                   Squiggles
C:   0000097E  A$Squiggles$3180                   Squiggles
C:   00000981  A$Squiggles$3183                   Squiggles
C:   00000981  C$Squiggles.c$288$1$157            Squiggles
C:   00000983  A$Squiggles$3184                   Squiggles
C:   00000985  A$Squiggles$3185                   Squiggles
C:   00000987  A$Squiggles$3186                   Squiggles
C:   00000989  A$Squiggles$3187                   Squiggles
C:   0000098A  A$Squiggles$3188                   Squiggles
C:   0000098C  A$Squiggles$3189                   Squiggles
ASxxxx Linker V03.00 + NoICE + sdld,  page 58.
Hexadecimal  [32-Bits]

Area                                    Addr        Size        Decimal Bytes (Attributes)
--------------------------------        ----        ----        ------- ----- ------------
CSEG                                000000B9    000014B2 =        5298. bytes (REL,CON,CODE)

      Value  Global                              Global Defined In Module
      -----  --------------------------------   ------------------------
C:   0000098D  A$Squiggles$3190                   Squiggles
C:   0000098F  A$Squiggles$3193                   Squiggles
C:   0000098F  C$Squiggles.c$290$1$157            Squiggles
C:   00000992  A$Squiggles$3196                   Squiggles
C:   00000992  C$Squiggles.c$291$1$157            Squiggles
C:   00000995  A$Squiggles$3197                   Squiggles
C:   00000998  A$Squiggles$3198                   Squiggles
C:   0000099B  A$Squiggles$3199                   Squiggles
C:   0000099E  A$Squiggles$3200                   Squiggles
C:   000009A1  A$Squiggles$3201                   Squiggles
C:   000009A4  A$Squiggles$3202                   Squiggles
C:   000009A6  A$Squiggles$3203                   Squiggles
C:   000009A8  A$Squiggles$3204                   Squiggles
C:   000009AB  A$Squiggles$3205                   Squiggles
C:   000009AD  A$Squiggles$3206                   Squiggles
C:   000009AF  A$Squiggles$3209                   Squiggles
C:   000009AF  C$Squiggles.c$292$1$157            Squiggles
C:   000009B1  A$Squiggles$3210                   Squiggles
C:   000009B3  A$Squiggles$3213                   Squiggles
C:   000009B3  C$Squiggles.c$293$1$157            Squiggles
C:   000009B3  XG$read_ranger$0$0                 Squiggles
C:   000009B4  A$Squiggles$3228                   Squiggles
C:   000009B4  C$Squiggles.c$297$1$157            Squiggles
C:   000009B4  C$Squiggles.c$301$1$159            Squiggles
C:   000009B4  G$set_COMPASS_PW$0$0               Squiggles
C:   000009B4  _set_COMPASS_PW                    Squiggles
C:   000009B6  A$Squiggles$3229                   Squiggles
C:   000009B7  A$Squiggles$3230                   Squiggles
C:   000009B9  A$Squiggles$3231                   Squiggles
C:   000009BA  A$Squiggles$3232                   Squiggles
C:   000009BC  A$Squiggles$3233                   Squiggles
C:   000009BE  A$Squiggles$3234                   Squiggles
C:   000009BF  A$Squiggles$3237                   Squiggles
C:   000009BF  C$Squiggles.c$302$1$159            Squiggles
C:   000009C0  A$Squiggles$3238                   Squiggles
C:   000009C1  A$Squiggles$3239                   Squiggles
C:   000009C3  A$Squiggles$3240                   Squiggles
C:   000009C4  A$Squiggles$3241                   Squiggles
C:   000009C6  A$Squiggles$3242                   Squiggles
C:   000009C8  A$Squiggles$3243                   Squiggles
C:   000009CA  A$Squiggles$3244                   Squiggles
C:   000009CC  A$Squiggles$3245                   Squiggles
C:   000009CD  A$Squiggles$3246                   Squiggles
C:   000009CE  A$Squiggles$3247                   Squiggles
C:   000009D0  A$Squiggles$3248                   Squiggles
C:   000009D1  A$Squiggles$3249                   Squiggles
C:   000009D2  A$Squiggles$3253                   Squiggles
C:   000009D2  C$Squiggles.c$303$1$159            Squiggles
C:   000009D3  A$Squiggles$3254                   Squiggles
C:   000009D5  A$Squiggles$3255                   Squiggles
C:   000009D6  A$Squiggles$3256                   Squiggles
ASxxxx Linker V03.00 + NoICE + sdld,  page 59.
Hexadecimal  [32-Bits]

Area                                    Addr        Size        Decimal Bytes (Attributes)
--------------------------------        ----        ----        ------- ----- ------------
CSEG                                000000B9    000014B2 =        5298. bytes (REL,CON,CODE)

      Value  Global                              Global Defined In Module
      -----  --------------------------------   ------------------------
C:   000009D8  A$Squiggles$3257                   Squiggles
C:   000009DA  A$Squiggles$3258                   Squiggles
C:   000009DD  A$Squiggles$3259                   Squiggles
C:   000009DF  A$Squiggles$3260                   Squiggles
C:   000009E1  A$Squiggles$3261                   Squiggles
C:   000009E2  A$Squiggles$3262                   Squiggles
C:   000009E4  A$Squiggles$3263                   Squiggles
C:   000009E5  A$Squiggles$3264                   Squiggles
C:   000009E6  A$Squiggles$3265                   Squiggles
C:   000009E8  A$Squiggles$3266                   Squiggles
C:   000009E9  A$Squiggles$3270                   Squiggles
C:   000009E9  C$Squiggles.c$305$1$159            Squiggles
C:   000009EA  A$Squiggles$3271                   Squiggles
C:   000009EC  A$Squiggles$3272                   Squiggles
C:   000009EE  A$Squiggles$3273                   Squiggles
C:   000009EF  A$Squiggles$3274                   Squiggles
C:   000009F1  A$Squiggles$3275                   Squiggles
C:   000009F3  A$Squiggles$3278                   Squiggles
C:   000009F3  C$Squiggles.c$307$2$160            Squiggles
C:   000009F4  A$Squiggles$3279                   Squiggles
C:   000009F6  A$Squiggles$3280                   Squiggles
C:   000009F8  A$Squiggles$3281                   Squiggles
C:   000009FA  A$Squiggles$3285                   Squiggles
C:   000009FA  C$Squiggles.c$311$2$161            Squiggles
C:   000009FC  A$Squiggles$3286                   Squiggles
C:   000009FD  A$Squiggles$3287                   Squiggles
C:   000009FF  A$Squiggles$3288                   Squiggles
C:   00000A01  A$Squiggles$3289                   Squiggles
C:   00000A02  A$Squiggles$3290                   Squiggles
C:   00000A04  A$Squiggles$3291                   Squiggles
C:   00000A06  A$Squiggles$3292                   Squiggles
C:   00000A08  A$Squiggles$3293                   Squiggles
C:   00000A0A  A$Squiggles$3294                   Squiggles
C:   00000A0C  A$Squiggles$3295                   Squiggles
C:   00000A0E  A$Squiggles$3296                   Squiggles
C:   00000A10  A$Squiggles$3297                   Squiggles
C:   00000A12  A$Squiggles$3298                   Squiggles
C:   00000A15  A$Squiggles$3299                   Squiggles
C:   00000A17  A$Squiggles$3300                   Squiggles
C:   00000A19  A$Squiggles$3301                   Squiggles
C:   00000A1B  A$Squiggles$3302                   Squiggles
C:   00000A1D  A$Squiggles$3303                   Squiggles
C:   00000A1F  A$Squiggles$3304                   Squiggles
C:   00000A21  A$Squiggles$3308                   Squiggles
C:   00000A21  C$Squiggles.c$314$1$159            Squiggles
C:   00000A23  A$Squiggles$3309                   Squiggles
C:   00000A25  A$Squiggles$3310                   Squiggles
C:   00000A26  A$Squiggles$3311                   Squiggles
C:   00000A28  A$Squiggles$3312                   Squiggles
C:   00000A2A  A$Squiggles$3313                   Squiggles
C:   00000A2B  A$Squiggles$3314                   Squiggles
ASxxxx Linker V03.00 + NoICE + sdld,  page 60.
Hexadecimal  [32-Bits]

Area                                    Addr        Size        Decimal Bytes (Attributes)
--------------------------------        ----        ----        ------- ----- ------------
CSEG                                000000B9    000014B2 =        5298. bytes (REL,CON,CODE)

      Value  Global                              Global Defined In Module
      -----  --------------------------------   ------------------------
C:   00000A2D  A$Squiggles$3315                   Squiggles
C:   00000A2F  A$Squiggles$3316                   Squiggles
C:   00000A31  A$Squiggles$3317                   Squiggles
C:   00000A33  A$Squiggles$3318                   Squiggles
C:   00000A36  A$Squiggles$3319                   Squiggles
C:   00000A38  A$Squiggles$3320                   Squiggles
C:   00000A3A  A$Squiggles$3321                   Squiggles
C:   00000A3C  A$Squiggles$3322                   Squiggles
C:   00000A3D  A$Squiggles$3323                   Squiggles
C:   00000A3F  A$Squiggles$3324                   Squiggles
C:   00000A41  A$Squiggles$3325                   Squiggles
C:   00000A43  A$Squiggles$3326                   Squiggles
C:   00000A45  A$Squiggles$3327                   Squiggles
C:   00000A48  A$Squiggles$3328                   Squiggles
C:   00000A4B  A$Squiggles$3329                   Squiggles
C:   00000A4E  A$Squiggles$3330                   Squiggles
C:   00000A50  A$Squiggles$3331                   Squiggles
C:   00000A53  A$Squiggles$3332                   Squiggles
C:   00000A55  A$Squiggles$3333                   Squiggles
C:   00000A57  A$Squiggles$3334                   Squiggles
C:   00000A59  A$Squiggles$3335                   Squiggles
C:   00000A5A  A$Squiggles$3336                   Squiggles
C:   00000A5C  A$Squiggles$3337                   Squiggles
C:   00000A5E  A$Squiggles$3338                   Squiggles
C:   00000A60  A$Squiggles$3339                   Squiggles
C:   00000A62  A$Squiggles$3340                   Squiggles
C:   00000A64  A$Squiggles$3341                   Squiggles
C:   00000A66  A$Squiggles$3342                   Squiggles
C:   00000A68  A$Squiggles$3343                   Squiggles
C:   00000A6A  A$Squiggles$3344                   Squiggles
C:   00000A6C  A$Squiggles$3345                   Squiggles
C:   00000A6E  A$Squiggles$3346                   Squiggles
C:   00000A70  A$Squiggles$3347                   Squiggles
C:   00000A73  A$Squiggles$3348                   Squiggles
C:   00000A75  A$Squiggles$3349                   Squiggles
C:   00000A77  A$Squiggles$3350                   Squiggles
C:   00000A79  A$Squiggles$3351                   Squiggles
C:   00000A7A  A$Squiggles$3352                   Squiggles
C:   00000A7C  A$Squiggles$3353                   Squiggles
C:   00000A7E  A$Squiggles$3354                   Squiggles
C:   00000A80  A$Squiggles$3355                   Squiggles
C:   00000A82  A$Squiggles$3356                   Squiggles
C:   00000A84  A$Squiggles$3357                   Squiggles
C:   00000A86  A$Squiggles$3358                   Squiggles
C:   00000A88  A$Squiggles$3359                   Squiggles
C:   00000A8A  A$Squiggles$3360                   Squiggles
C:   00000A8C  A$Squiggles$3361                   Squiggles
C:   00000A8E  A$Squiggles$3362                   Squiggles
C:   00000A90  A$Squiggles$3363                   Squiggles
C:   00000A91  A$Squiggles$3364                   Squiggles
C:   00000A94  A$Squiggles$3365                   Squiggles
ASxxxx Linker V03.00 + NoICE + sdld,  page 61.
Hexadecimal  [32-Bits]

Area                                    Addr        Size        Decimal Bytes (Attributes)
--------------------------------        ----        ----        ------- ----- ------------
CSEG                                000000B9    000014B2 =        5298. bytes (REL,CON,CODE)

      Value  Global                              Global Defined In Module
      -----  --------------------------------   ------------------------
C:   00000A96  A$Squiggles$3366                   Squiggles
C:   00000A98  A$Squiggles$3367                   Squiggles
C:   00000A9A  A$Squiggles$3368                   Squiggles
C:   00000A9B  A$Squiggles$3369                   Squiggles
C:   00000A9D  A$Squiggles$3370                   Squiggles
C:   00000A9F  A$Squiggles$3371                   Squiggles
C:   00000AA1  A$Squiggles$3372                   Squiggles
C:   00000AA3  A$Squiggles$3373                   Squiggles
C:   00000AA5  A$Squiggles$3374                   Squiggles
C:   00000AA7  A$Squiggles$3375                   Squiggles
C:   00000AA8  A$Squiggles$3376                   Squiggles
C:   00000AAB  A$Squiggles$3377                   Squiggles
C:   00000AAE  A$Squiggles$3378                   Squiggles
C:   00000AB1  A$Squiggles$3381                   Squiggles
C:   00000AB1  C$Squiggles.c$316$1$159            Squiggles
C:   00000AB2  A$Squiggles$3382                   Squiggles
C:   00000AB4  A$Squiggles$3383                   Squiggles
C:   00000AB6  A$Squiggles$3384                   Squiggles
C:   00000AB8  A$Squiggles$3385                   Squiggles
C:   00000ABA  A$Squiggles$3386                   Squiggles
C:   00000ABC  A$Squiggles$3389                   Squiggles
C:   00000ABC  C$Squiggles.c$318$2$162            Squiggles
C:   00000ABF  A$Squiggles$3390                   Squiggles
C:   00000AC2  A$Squiggles$3394                   Squiggles
C:   00000AC2  C$Squiggles.c$320$1$159            Squiggles
C:   00000AC3  A$Squiggles$3395                   Squiggles
C:   00000AC5  A$Squiggles$3396                   Squiggles
C:   00000AC7  A$Squiggles$3397                   Squiggles
C:   00000AC9  A$Squiggles$3398                   Squiggles
C:   00000ACB  A$Squiggles$3399                   Squiggles
C:   00000ACD  A$Squiggles$3402                   Squiggles
C:   00000ACD  C$Squiggles.c$322$2$163            Squiggles
C:   00000AD0  A$Squiggles$3403                   Squiggles
C:   00000AD3  A$Squiggles$3407                   Squiggles
C:   00000AD3  C$Squiggles.c$324$1$159            Squiggles
C:   00000AD5  A$Squiggles$3408                   Squiggles
C:   00000AD8  A$Squiggles$3411                   Squiggles
C:   00000AD8  C$Squiggles.c$326$2$164            Squiggles
C:   00000ADA  A$Squiggles$3412                   Squiggles
C:   00000ADB  A$Squiggles$3413                   Squiggles
C:   00000ADD  A$Squiggles$3414                   Squiggles
C:   00000ADF  A$Squiggles$3415                   Squiggles
C:   00000AE1  A$Squiggles$3416                   Squiggles
C:   00000AE3  A$Squiggles$3417                   Squiggles
C:   00000AE5  A$Squiggles$3421                   Squiggles
C:   00000AE5  C$Squiggles.c$328$1$159            Squiggles
C:   00000AE5  XG$set_COMPASS_PW$0$0              Squiggles
C:   00000AE6  __divuint                          _divuint
C:   00000B0F  ___fsmul                           _fsmul
C:   00000BB2  fsgetargs                          _fsget2args
C:   00000BE0  fs_normalize_a                     _fsnormalize
ASxxxx Linker V03.00 + NoICE + sdld,  page 62.
Hexadecimal  [32-Bits]

Area                                    Addr        Size        Decimal Bytes (Attributes)
--------------------------------        ----        ----        ------- ----- ------------
CSEG                                000000B9    000014B2 =        5298. bytes (REL,CON,CODE)

      Value  Global                              Global Defined In Module
      -----  --------------------------------   ------------------------
C:   00000C13  __gptrput                          _gptrput
C:   00000C2E  __mulint                           _mulint
C:   00000C2E  __mulint_dummy                     _mulint
C:   00000CBB  _vsprintf                          sprintf
C:   00000CF8  _sprintf                           sprintf
C:   00000D46  ___fsadd                           _fsadd
C:   00000D49  fsadd_direct_entry                 _fsadd
C:   00000D9F  ___sint2fs                         _sint2fs
C:   00000DAC  ___uint2fs                         _uint2fs
C:   00000DB8  ___fs2uint                         _fs2uint
C:   00000DC3  fs_round_and_return                _fsreturnval
C:   00000DDB  fs_zerocheck_return                _fsreturnval
C:   00000DE4  fs_return_zero                     _fsreturnval
C:   00000DEC  fs_direct_return                   _fsreturnval
C:   00000DFA  fs_return_inf                      _fsreturnval
C:   00000E07  fs_return_nan                      _fsreturnval
C:   00000E1D  _vprintf                           vprintf
C:   00000E36  _printf                            vprintf
C:   00000F08  __print_format                     printf_large
C:   00001412  fs_swap_a_b                        _fsswapargs
C:   0000142C  _strlen                            _strlen
C:   00001444  __gptrget                          _gptrget
C:   00001460  ___uchar2fs                        _uchar2fs
C:   0000146B  ___fs2uchar                        _fs2uchar
C:   00001473  ___slong2fs                        _slong2fs
C:   0000147C  slong2fs_doit                      _slong2fs
C:   000014A0  ___ulong2fs                        _ulong2fs
C:   000014A9  ulong2fs_doit                      _ulong2fs
C:   000014B3  __divsint                          _divsint
C:   000014EB  fs_rshift_a                        _fsrshift
C:   0000152E  __sdcc_external_startup            _startup
C:   00001532  ___fs2ulong                        _fs2ulong
C:   00001534  fs2ulong_begin                     _fs2ulong
C:   00001559  fsgetarg                           _fsget1arg
ASxxxx Linker V03.00 + NoICE + sdld,  page 63.
Hexadecimal  [32-Bits]

Area                                    Addr        Size        Decimal Bytes (Attributes)
--------------------------------        ----        ----        ------- ----- ------------
CONST                               0000156B    00000145 =         325. bytes (REL,CON,CODE)

      Value  Global                              Global Defined In Module
      -----  --------------------------------   ------------------------
C:   0000156B  FSquiggles$__str_0$0$0             Squiggles
C:   00001581  FSquiggles$__str_1$0$0             Squiggles
C:   00001591  FSquiggles$__str_2$0$0             Squiggles
C:   00001594  FSquiggles$__str_3$0$0             Squiggles
C:   0000159D  FSquiggles$__str_4$0$0             Squiggles
C:   000015BE  FSquiggles$__str_5$0$0             Squiggles
C:   000015E9  FSquiggles$__str_6$0$0             Squiggles
C:   000015F5  FSquiggles$__str_7$0$0             Squiggles
C:   00001603  FSquiggles$__str_8$0$0             Squiggles
C:   00001613  FSquiggles$__str_9$0$0             Squiggles
C:   00001621  FSquiggles$__str_10$0$0            Squiggles
C:   0000164A  FSquiggles$__str_11$0$0            Squiggles
C:   00001662  FSquiggles$__str_12$0$0            Squiggles
C:   00001688  FSquiggles$__str_13$0$0            Squiggles

ASxxxx Linker V03.00 + NoICE + sdld,  page 64.

Files Linked                              [ module(s) ]

C:\Users\rutmas\Documents\LITEC\LITEC\Lab 4\Squiggles\Squiggles.rel
                                          [  ]


Libraries Linked                          [ object file ]

C:\Program Files (x86)\SDCC\bin\..\lib\small/libint.lib
                                          [ _divuint.rel ]
C:\Program Files (x86)\SDCC\bin\..\lib\small/libfloat.lib
                                          [ _fsmul.rel ]
C:\Program Files (x86)\SDCC\bin\..\lib\small/libfloat.lib
                                          [ _fsget2args.rel ]
C:\Program Files (x86)\SDCC\bin\..\lib\small/mcs51.lib
                                          [ crtclear.rel ]
C:\Program Files (x86)\SDCC\bin\..\lib\small/libfloat.lib
                                          [ _fsnormalize.rel ]
C:\Program Files (x86)\SDCC\bin\..\lib\small/mcs51.lib
                                          [ crtxinit.rel ]
C:\Program Files (x86)\SDCC\bin\..\lib\small/libsdcc.lib
                                          [ _gptrput.rel ]
C:\Program Files (x86)\SDCC\bin\..\lib\small/libint.lib
                                          [ _mulint.rel ]
C:\Program Files (x86)\SDCC\bin\..\lib\small/libsdcc.lib
                                          [ sprintf.rel ]
C:\Program Files (x86)\SDCC\bin\..\lib\small/mcs51.lib
                                          [ crtxclear.rel ]
C:\Program Files (x86)\SDCC\bin\..\lib\small/libfloat.lib
                                          [ _fsadd.rel ]
C:\Program Files (x86)\SDCC\bin\..\lib\small/libfloat.lib
                                          [ _sint2fs.rel ]
C:\Program Files (x86)\SDCC\bin\..\lib\small/libfloat.lib
                                          [ _uint2fs.rel ]
C:\Program Files (x86)\SDCC\bin\..\lib\small/libfloat.lib
                                          [ _fs2uint.rel ]
C:\Program Files (x86)\SDCC\bin\..\lib\small/libfloat.lib
                                          [ _fsreturnval.rel ]
C:\Program Files (x86)\SDCC\bin\..\lib\small/libsdcc.lib
                                          [ _bp.rel ]
C:\Program Files (x86)\SDCC\bin\..\lib\small/libsdcc.lib
                                          [ vprintf.rel ]
C:\Program Files (x86)\SDCC\bin\..\lib\small/libsdcc.lib
                                          [ printf_large.rel ]
C:\Program Files (x86)\SDCC\bin\..\lib\small/libfloat.lib
                                          [ _fsswapargs.rel ]
C:\Program Files (x86)\SDCC\bin\..\lib\small/libsdcc.lib
                                          [ _strlen.rel ]
C:\Program Files (x86)\SDCC\bin\..\lib\small/mcs51.lib
                                          [ crtstart.rel ]
C:\Program Files (x86)\SDCC\bin\..\lib\small/libsdcc.lib
                                          [ _gptrget.rel ]
C:\Program Files (x86)\SDCC\bin\..\lib\small/libfloat.lib
                                          [ _uchar2fs.rel ]
C:\Program Files (x86)\SDCC\bin\..\lib\small/libfloat.lib
                                          [ _fs2uchar.rel ]
C:\Program Files (x86)\SDCC\bin\..\lib\small/libfloat.lib
                                          [ _slong2fs.rel ]
C:\Program Files (x86)\SDCC\bin\..\lib\small/libfloat.lib
                                          [ _ulong2fs.rel ]
C:\Program Files (x86)\SDCC\bin\..\lib\small/libint.lib
                                          [ _divsint.rel ]
C:\Program Files (x86)\SDCC\bin\..\lib\small/libfloat.lib
                                          [ _fsrshift.rel ]
C:\Program Files (x86)\SDCC\bin\..\lib\small/libsdcc.lib
                                          [ _startup.rel ]
C:\Program Files (x86)\SDCC\bin\..\lib\small/libfloat.lib
                                          [ _fs2ulong.rel ]
C:\Program Files (x86)\SDCC\bin\..\lib\small/libfloat.lib
                                          [ _fsget1arg.rel ]

ASxxxx Linker V03.00 + NoICE + sdld,  page 65.

User Base Address Definitions

HOME = 0x0000
XSEG = 0x0001
PSEG = 0x0001
ISEG = 0x0000
BSEG = 0x0000

