ASxxxx Linker V03.00 + NoICE + sdld,  page 1.
Hexadecimal  [32-Bits]

Area                                    Addr        Size        Decimal Bytes (Attributes)
--------------------------------        ----        ----        ------- ----- ------------
CABS                                00000000    00000000 =           0. bytes (ABS,CON,CODE)

      Value  Global                              Global Defined In Module
      -----  --------------------------------   ------------------------
C:   00000000  l_BIT_BANK                      
C:   00000000  l_CABS                          
C:   00000000  l_GSINIT1                       
C:   00000000  l_GSINIT5                       
C:   00000000  l_IABS                          
C:   00000000  l_PSEG                          
C:   00000000  l_REG_BANK_1                    
C:   00000000  l_REG_BANK_2                    
C:   00000000  l_REG_BANK_3                    
C:   00000000  l_RSEG                          
C:   00000000  l_RSEG0                         
C:   00000000  l_RSEG1                         
C:   00000000  l_XABS                          
C:   00000000  l_XINIT                         
C:   00000000  l_XISEG                         
C:   00000000  l__CODE                         
C:   00000000  s_BSEG                          
C:   00000000  s_CABS                          
C:   00000000  s_DSEG                          
C:   00000000  s_HOME                          
C:   00000000  s_IABS                          
C:   00000000  s_REG_BANK_0                    
C:   00000000  s_RSEG                          
C:   00000000  s_RSEG0                         
C:   00000000  s_RSEG1                         
C:   00000000  s_XABS                          
C:   00000001  s_PSEG                          
C:   00000001  s_XSEG                          
C:   00000002  l_BSEG_BYTES                    
C:   00000003  l_GSFINAL                       
C:   00000003  l_GSINIT0                       
C:   00000006  l_ISEG                          
C:   00000006  l_OSEG                          
C:   00000008  l_REG_BANK_0                    
C:   00000008  s_REG_BANK_1                    
C:   0000000A  l_BSEG                          
C:   0000000A  l_GSINIT2                       
C:   00000010  s_REG_BANK_2                    
C:   00000011  s_OSEG                          
C:   00000017  s_ISEG                          
C:   00000018  s_BIT_BANK                      
C:   00000018  s_REG_BANK_3                    
C:   0000001D  l_GSINIT                        
C:   00000020  s_BSEG_BYTES                    
C:   00000020  s__CODE                         
C:   00000022  l_GSINIT3                       
C:   0000002A  l_GSINIT4                       
C:   00000050  l_XSEG                          
C:   00000051  l_HOME                          
C:   00000051  s_GSINIT0                       
ASxxxx Linker V03.00 + NoICE + sdld,  page 2.
Hexadecimal  [32-Bits]

Area                                    Addr        Size        Decimal Bytes (Attributes)
--------------------------------        ----        ----        ------- ----- ------------
CABS                                00000000    00000000 =           0. bytes (ABS,CON,CODE)

      Value  Global                              Global Defined In Module
      -----  --------------------------------   ------------------------
C:   00000051  s_XISEG                         
C:   00000054  s_GSINIT1                       
C:   00000054  s_GSINIT2                       
C:   0000005E  s_GSINIT3                       
C:   00000069  s_SSEG                          
C:   0000007D  l_DSEG                          
C:   00000080  s_GSINIT4                       
C:   00000096  l_CONST                         
C:   00000097  l_SSEG                          
C:   000000AA  s_GSINIT                        
C:   000000AA  s_GSINIT5                       
C:   000000C7  s_GSFINAL                       
C:   000000CA  s_CSEG                          
C:   00000100  l_IRAM                          
C:   00000EA8  l_CSEG                          
C:   00000F72  s_CONST                         
C:   00001008  s_XINIT                         

ASxxxx Linker V03.00 + NoICE + sdld,  page 3.
Hexadecimal  [32-Bits]

Area                                    Addr        Size        Decimal Bytes (Attributes)
--------------------------------        ----        ----        ------- ----- ------------
.  .ABS.                            00000000    00000000 =           0. bytes (ABS,CON)

      Value  Global                              Global Defined In Module
      -----  --------------------------------   ------------------------
     00000000  .__.ABS.                           _startup
     00000080  G$P0$0$0                           Accelerometer_Test
     00000080  G$P0_0$0$0                         Accelerometer_Test
     00000080  _P0                                Accelerometer_Test
     00000080  _P0_0                              Accelerometer_Test
     00000081  G$P0_1$0$0                         Accelerometer_Test
     00000081  G$SP$0$0                           Accelerometer_Test
     00000081  _P0_1                              Accelerometer_Test
     00000081  _SP                                Accelerometer_Test
     00000082  G$DPL$0$0                          Accelerometer_Test
     00000082  G$P0_2$0$0                         Accelerometer_Test
     00000082  _DPL                               Accelerometer_Test
     00000082  _P0_2                              Accelerometer_Test
     00000083  G$BUS_SCL$0$0                      Accelerometer_Test
     00000083  G$DPH$0$0                          Accelerometer_Test
     00000083  G$P0_3$0$0                         Accelerometer_Test
     00000083  _BUS_SCL                           Accelerometer_Test
     00000083  _DPH                               Accelerometer_Test
     00000083  _P0_3                              Accelerometer_Test
     00000084  G$P0_4$0$0                         Accelerometer_Test
     00000084  G$P4$0$0                           Accelerometer_Test
     00000084  _P0_4                              Accelerometer_Test
     00000084  _P4                                Accelerometer_Test
     00000085  G$P0_5$0$0                         Accelerometer_Test
     00000085  G$P5$0$0                           Accelerometer_Test
     00000085  _P0_5                              Accelerometer_Test
     00000085  _P5                                Accelerometer_Test
     00000086  G$P0_6$0$0                         Accelerometer_Test
     00000086  G$P6$0$0                           Accelerometer_Test
     00000086  _P0_6                              Accelerometer_Test
     00000086  _P6                                Accelerometer_Test
     00000087  G$P0_7$0$0                         Accelerometer_Test
     00000087  G$PCON$0$0                         Accelerometer_Test
     00000087  _P0_7                              Accelerometer_Test
     00000087  _PCON                              Accelerometer_Test
     00000088  G$IT0$0$0                          Accelerometer_Test
     00000088  G$TCON$0$0                         Accelerometer_Test
     00000088  _IT0                               Accelerometer_Test
     00000088  _TCON                              Accelerometer_Test
     00000089  G$IE0$0$0                          Accelerometer_Test
     00000089  G$TMOD$0$0                         Accelerometer_Test
     00000089  _IE0                               Accelerometer_Test
     00000089  _TMOD                              Accelerometer_Test
     0000008A  G$IT1$0$0                          Accelerometer_Test
     0000008A  G$TL0$0$0                          Accelerometer_Test
     0000008A  _IT1                               Accelerometer_Test
     0000008A  _TL0                               Accelerometer_Test
     0000008B  G$IE1$0$0                          Accelerometer_Test
     0000008B  G$TL1$0$0                          Accelerometer_Test
     0000008B  _IE1                               Accelerometer_Test
ASxxxx Linker V03.00 + NoICE + sdld,  page 4.
Hexadecimal  [32-Bits]

Area                                    Addr        Size        Decimal Bytes (Attributes)
--------------------------------        ----        ----        ------- ----- ------------
.  .ABS.                            00000000    00000000 =           0. bytes (ABS,CON)

      Value  Global                              Global Defined In Module
      -----  --------------------------------   ------------------------
     0000008B  _TL1                               Accelerometer_Test
     0000008C  G$TH0$0$0                          Accelerometer_Test
     0000008C  G$TR0$0$0                          Accelerometer_Test
     0000008C  _TH0                               Accelerometer_Test
     0000008C  _TR0                               Accelerometer_Test
     0000008D  G$TF0$0$0                          Accelerometer_Test
     0000008D  G$TH1$0$0                          Accelerometer_Test
     0000008D  _TF0                               Accelerometer_Test
     0000008D  _TH1                               Accelerometer_Test
     0000008E  G$CKCON$0$0                        Accelerometer_Test
     0000008E  G$TR1$0$0                          Accelerometer_Test
     0000008E  _CKCON                             Accelerometer_Test
     0000008E  _TR1                               Accelerometer_Test
     0000008F  G$PSCTL$0$0                        Accelerometer_Test
     0000008F  G$TF1$0$0                          Accelerometer_Test
     0000008F  _PSCTL                             Accelerometer_Test
     0000008F  _TF1                               Accelerometer_Test
     00000090  G$P1$0$0                           Accelerometer_Test
     00000090  G$P1_0$0$0                         Accelerometer_Test
     00000090  _P1                                Accelerometer_Test
     00000090  _P1_0                              Accelerometer_Test
     00000091  G$P1_1$0$0                         Accelerometer_Test
     00000091  G$TMR3CN$0$0                       Accelerometer_Test
     00000091  _P1_1                              Accelerometer_Test
     00000091  _TMR3CN                            Accelerometer_Test
     00000092  G$P1_2$0$0                         Accelerometer_Test
     00000092  G$TMR3RLL$0$0                      Accelerometer_Test
     00000092  _P1_2                              Accelerometer_Test
     00000092  _TMR3RLL                           Accelerometer_Test
     00000093  G$P1_3$0$0                         Accelerometer_Test
     00000093  G$TMR3RLH$0$0                      Accelerometer_Test
     00000093  _P1_3                              Accelerometer_Test
     00000093  _TMR3RLH                           Accelerometer_Test
     00000094  G$P1_4$0$0                         Accelerometer_Test
     00000094  G$TMR3L$0$0                        Accelerometer_Test
     00000094  _P1_4                              Accelerometer_Test
     00000094  _TMR3L                             Accelerometer_Test
     00000095  G$P1_5$0$0                         Accelerometer_Test
     00000095  G$TMR3H$0$0                        Accelerometer_Test
     00000095  _P1_5                              Accelerometer_Test
     00000095  _TMR3H                             Accelerometer_Test
     00000096  G$P1_6$0$0                         Accelerometer_Test
     00000096  G$P7$0$0                           Accelerometer_Test
     00000096  _P1_6                              Accelerometer_Test
     00000096  _P7                                Accelerometer_Test
     00000097  G$P1_7$0$0                         Accelerometer_Test
     00000097  _P1_7                              Accelerometer_Test
     00000098  G$RI$0$0                           Accelerometer_Test
     00000098  G$RI0$0$0                          Accelerometer_Test
     00000098  G$SCON$0$0                         Accelerometer_Test
     00000098  G$SCON0$0$0                        Accelerometer_Test
ASxxxx Linker V03.00 + NoICE + sdld,  page 5.
Hexadecimal  [32-Bits]

Area                                    Addr        Size        Decimal Bytes (Attributes)
--------------------------------        ----        ----        ------- ----- ------------
.  .ABS.                            00000000    00000000 =           0. bytes (ABS,CON)

      Value  Global                              Global Defined In Module
      -----  --------------------------------   ------------------------
     00000098  _RI                                Accelerometer_Test
     00000098  _RI0                               Accelerometer_Test
     00000098  _SCON                              Accelerometer_Test
     00000098  _SCON0                             Accelerometer_Test
     00000099  G$SBUF$0$0                         Accelerometer_Test
     00000099  G$SBUF0$0$0                        Accelerometer_Test
     00000099  G$TI$0$0                           Accelerometer_Test
     00000099  G$TI0$0$0                          Accelerometer_Test
     00000099  _SBUF                              Accelerometer_Test
     00000099  _SBUF0                             Accelerometer_Test
     00000099  _TI                                Accelerometer_Test
     00000099  _TI0                               Accelerometer_Test
     0000009A  G$RB8$0$0                          Accelerometer_Test
     0000009A  G$RB80$0$0                         Accelerometer_Test
     0000009A  G$SPI0CFG$0$0                      Accelerometer_Test
     0000009A  _RB8                               Accelerometer_Test
     0000009A  _RB80                              Accelerometer_Test
     0000009A  _SPI0CFG                           Accelerometer_Test
     0000009B  G$SPI0DAT$0$0                      Accelerometer_Test
     0000009B  G$TB8$0$0                          Accelerometer_Test
     0000009B  G$TB80$0$0                         Accelerometer_Test
     0000009B  _SPI0DAT                           Accelerometer_Test
     0000009B  _TB8                               Accelerometer_Test
     0000009B  _TB80                              Accelerometer_Test
     0000009C  G$ADC1$0$0                         Accelerometer_Test
     0000009C  G$REN$0$0                          Accelerometer_Test
     0000009C  G$REN0$0$0                         Accelerometer_Test
     0000009C  _ADC1                              Accelerometer_Test
     0000009C  _REN                               Accelerometer_Test
     0000009C  _REN0                              Accelerometer_Test
     0000009D  G$MCE0$0$0                         Accelerometer_Test
     0000009D  G$SM2$0$0                          Accelerometer_Test
     0000009D  G$SM20$0$0                         Accelerometer_Test
     0000009D  G$SPI0CKR$0$0                      Accelerometer_Test
     0000009D  _MCE0                              Accelerometer_Test
     0000009D  _SM2                               Accelerometer_Test
     0000009D  _SM20                              Accelerometer_Test
     0000009D  _SPI0CKR                           Accelerometer_Test
     0000009E  G$CPT0CN$0$0                       Accelerometer_Test
     0000009E  G$SM1$0$0                          Accelerometer_Test
     0000009E  G$SM10$0$0                         Accelerometer_Test
     0000009E  _CPT0CN                            Accelerometer_Test
     0000009E  _SM1                               Accelerometer_Test
     0000009E  _SM10                              Accelerometer_Test
     0000009F  G$CPT1CN$0$0                       Accelerometer_Test
     0000009F  G$S0MODE$0$0                       Accelerometer_Test
     0000009F  G$SM0$0$0                          Accelerometer_Test
     0000009F  G$SM00$0$0                         Accelerometer_Test
     0000009F  _CPT1CN                            Accelerometer_Test
     0000009F  _S0MODE                            Accelerometer_Test
     0000009F  _SM0                               Accelerometer_Test
ASxxxx Linker V03.00 + NoICE + sdld,  page 6.
Hexadecimal  [32-Bits]

Area                                    Addr        Size        Decimal Bytes (Attributes)
--------------------------------        ----        ----        ------- ----- ------------
.  .ABS.                            00000000    00000000 =           0. bytes (ABS,CON)

      Value  Global                              Global Defined In Module
      -----  --------------------------------   ------------------------
     0000009F  _SM00                              Accelerometer_Test
     000000A0  G$P2$0$0                           Accelerometer_Test
     000000A0  G$P2_0$0$0                         Accelerometer_Test
     000000A0  _P2                                Accelerometer_Test
     000000A0  _P2_0                              Accelerometer_Test
     000000A1  G$EMI0TC$0$0                       Accelerometer_Test
     000000A1  G$P2_1$0$0                         Accelerometer_Test
     000000A1  _EMI0TC                            Accelerometer_Test
     000000A1  _P2_1                              Accelerometer_Test
     000000A2  G$P2_2$0$0                         Accelerometer_Test
     000000A2  _P2_2                              Accelerometer_Test
     000000A3  G$EMI0CF$0$0                       Accelerometer_Test
     000000A3  G$P2_3$0$0                         Accelerometer_Test
     000000A3  _EMI0CF                            Accelerometer_Test
     000000A3  _P2_3                              Accelerometer_Test
     000000A4  G$P0MDOUT$0$0                      Accelerometer_Test
     000000A4  G$P2_4$0$0                         Accelerometer_Test
     000000A4  G$PRT0CF$0$0                       Accelerometer_Test
     000000A4  _P0MDOUT                           Accelerometer_Test
     000000A4  _P2_4                              Accelerometer_Test
     000000A4  _PRT0CF                            Accelerometer_Test
     000000A5  G$P1MDOUT$0$0                      Accelerometer_Test
     000000A5  G$P2_5$0$0                         Accelerometer_Test
     000000A5  G$PRT1CF$0$0                       Accelerometer_Test
     000000A5  _P1MDOUT                           Accelerometer_Test
     000000A5  _P2_5                              Accelerometer_Test
     000000A5  _PRT1CF                            Accelerometer_Test
     000000A6  G$P2MDOUT$0$0                      Accelerometer_Test
     000000A6  G$P2_6$0$0                         Accelerometer_Test
     000000A6  G$PRT2CF$0$0                       Accelerometer_Test
     000000A6  _P2MDOUT                           Accelerometer_Test
     000000A6  _P2_6                              Accelerometer_Test
     000000A6  _PRT2CF                            Accelerometer_Test
     000000A7  G$P2_7$0$0                         Accelerometer_Test
     000000A7  G$P3MDOUT$0$0                      Accelerometer_Test
     000000A7  G$PRT3CF$0$0                       Accelerometer_Test
     000000A7  _P2_7                              Accelerometer_Test
     000000A7  _P3MDOUT                           Accelerometer_Test
     000000A7  _PRT3CF                            Accelerometer_Test
     000000A8  G$EX0$0$0                          Accelerometer_Test
     000000A8  G$IE$0$0                           Accelerometer_Test
     000000A8  _EX0                               Accelerometer_Test
     000000A8  _IE                                Accelerometer_Test
     000000A9  G$ET0$0$0                          Accelerometer_Test
     000000A9  G$SADDR0$0$0                       Accelerometer_Test
     000000A9  _ET0                               Accelerometer_Test
     000000A9  _SADDR0                            Accelerometer_Test
     000000AA  G$ADC1CN$0$0                       Accelerometer_Test
     000000AA  G$EX1$0$0                          Accelerometer_Test
     000000AA  _ADC1CN                            Accelerometer_Test
     000000AA  _EX1                               Accelerometer_Test
ASxxxx Linker V03.00 + NoICE + sdld,  page 7.
Hexadecimal  [32-Bits]

Area                                    Addr        Size        Decimal Bytes (Attributes)
--------------------------------        ----        ----        ------- ----- ------------
.  .ABS.                            00000000    00000000 =           0. bytes (ABS,CON)

      Value  Global                              Global Defined In Module
      -----  --------------------------------   ------------------------
     000000AB  G$ADC1CF$0$0                       Accelerometer_Test
     000000AB  G$ET1$0$0                          Accelerometer_Test
     000000AB  _ADC1CF                            Accelerometer_Test
     000000AB  _ET1                               Accelerometer_Test
     000000AC  G$AMX1SL$0$0                       Accelerometer_Test
     000000AC  G$ES$0$0                           Accelerometer_Test
     000000AC  G$ES0$0$0                          Accelerometer_Test
     000000AC  _AMX1SL                            Accelerometer_Test
     000000AC  _ES                                Accelerometer_Test
     000000AC  _ES0                               Accelerometer_Test
     000000AD  G$ET2$0$0                          Accelerometer_Test
     000000AD  G$P3IF$0$0                         Accelerometer_Test
     000000AD  _ET2                               Accelerometer_Test
     000000AD  _P3IF                              Accelerometer_Test
     000000AE  G$SADEN1$0$0                       Accelerometer_Test
     000000AE  _SADEN1                            Accelerometer_Test
     000000AF  G$EA$0$0                           Accelerometer_Test
     000000AF  G$EMI0CN$0$0                       Accelerometer_Test
     000000AF  G$_XPAGE$0$0                       Accelerometer_Test
     000000AF  _EA                                Accelerometer_Test
     000000AF  _EMI0CN                            Accelerometer_Test
     000000AF  __XPAGE                            Accelerometer_Test
     000000B0  G$P3$0$0                           Accelerometer_Test
     000000B0  G$P3_0$0$0                         Accelerometer_Test
     000000B0  _P3                                Accelerometer_Test
     000000B0  _P3_0                              Accelerometer_Test
     000000B1  G$OSCXCN$0$0                       Accelerometer_Test
     000000B1  G$P3_1$0$0                         Accelerometer_Test
     000000B1  _OSCXCN                            Accelerometer_Test
     000000B1  _P3_1                              Accelerometer_Test
     000000B2  G$OSCICN$0$0                       Accelerometer_Test
     000000B2  G$P3_2$0$0                         Accelerometer_Test
     000000B2  _OSCICN                            Accelerometer_Test
     000000B2  _P3_2                              Accelerometer_Test
     000000B3  G$P3_3$0$0                         Accelerometer_Test
     000000B3  _P3_3                              Accelerometer_Test
     000000B4  G$P3_4$0$0                         Accelerometer_Test
     000000B4  _P3_4                              Accelerometer_Test
     000000B5  G$P3_5$0$0                         Accelerometer_Test
     000000B5  G$P74OUT$0$0                       Accelerometer_Test
     000000B5  _P3_5                              Accelerometer_Test
     000000B5  _P74OUT                            Accelerometer_Test
     000000B6  G$FLSCL$0$0                        Accelerometer_Test
     000000B6  G$P3_6$0$0                         Accelerometer_Test
     000000B6  _FLSCL                             Accelerometer_Test
     000000B6  _P3_6                              Accelerometer_Test
     000000B7  G$FLACL$0$0                        Accelerometer_Test
     000000B7  G$P3_7$0$0                         Accelerometer_Test
     000000B7  _FLACL                             Accelerometer_Test
     000000B7  _P3_7                              Accelerometer_Test
     000000B8  G$IP$0$0                           Accelerometer_Test
ASxxxx Linker V03.00 + NoICE + sdld,  page 8.
Hexadecimal  [32-Bits]

Area                                    Addr        Size        Decimal Bytes (Attributes)
--------------------------------        ----        ----        ------- ----- ------------
.  .ABS.                            00000000    00000000 =           0. bytes (ABS,CON)

      Value  Global                              Global Defined In Module
      -----  --------------------------------   ------------------------
     000000B8  G$PX0$0$0                          Accelerometer_Test
     000000B8  _IP                                Accelerometer_Test
     000000B8  _PX0                               Accelerometer_Test
     000000B9  G$PT0$0$0                          Accelerometer_Test
     000000B9  G$SADEN0$0$0                       Accelerometer_Test
     000000B9  _PT0                               Accelerometer_Test
     000000B9  _SADEN0                            Accelerometer_Test
     000000BA  G$AMX0CF$0$0                       Accelerometer_Test
     000000BA  G$PX1$0$0                          Accelerometer_Test
     000000BA  _AMX0CF                            Accelerometer_Test
     000000BA  _PX1                               Accelerometer_Test
     000000BB  G$AMX0SL$0$0                       Accelerometer_Test
     000000BB  G$PT1$0$0                          Accelerometer_Test
     000000BB  _AMX0SL                            Accelerometer_Test
     000000BB  _PT1                               Accelerometer_Test
     000000BC  G$ADC0CF$0$0                       Accelerometer_Test
     000000BC  G$PS$0$0                           Accelerometer_Test
     000000BC  G$PS0$0$0                          Accelerometer_Test
     000000BC  _ADC0CF                            Accelerometer_Test
     000000BC  _PS                                Accelerometer_Test
     000000BC  _PS0                               Accelerometer_Test
     000000BD  G$P1MDIN$0$0                       Accelerometer_Test
     000000BD  G$PT2$0$0                          Accelerometer_Test
     000000BD  _P1MDIN                            Accelerometer_Test
     000000BD  _PT2                               Accelerometer_Test
     000000BE  G$ADC0L$0$0                        Accelerometer_Test
     000000BE  _ADC0L                             Accelerometer_Test
     000000BF  G$ADC0H$0$0                        Accelerometer_Test
     000000BF  _ADC0H                             Accelerometer_Test
     000000C0  G$BUS_TOE$0$0                      Accelerometer_Test
     000000C0  G$SMB0CN$0$0                       Accelerometer_Test
     000000C0  G$SMBTOE$0$0                       Accelerometer_Test
     000000C0  _BUS_TOE                           Accelerometer_Test
     000000C0  _SMB0CN                            Accelerometer_Test
     000000C0  _SMBTOE                            Accelerometer_Test
     000000C1  G$BUS_FTE$0$0                      Accelerometer_Test
     000000C1  G$SMB0STA$0$0                      Accelerometer_Test
     000000C1  G$SMBFTE$0$0                       Accelerometer_Test
     000000C1  _BUS_FTE                           Accelerometer_Test
     000000C1  _SMB0STA                           Accelerometer_Test
     000000C1  _SMBFTE                            Accelerometer_Test
     000000C2  G$AA$0$0                           Accelerometer_Test
     000000C2  G$BUS_AA$0$0                       Accelerometer_Test
     000000C2  G$SMB0DAT$0$0                      Accelerometer_Test
     000000C2  _AA                                Accelerometer_Test
     000000C2  _BUS_AA                            Accelerometer_Test
     000000C2  _SMB0DAT                           Accelerometer_Test
     000000C3  G$BUS_INT$0$0                      Accelerometer_Test
     000000C3  G$SI$0$0                           Accelerometer_Test
     000000C3  G$SMB0ADR$0$0                      Accelerometer_Test
     000000C3  _BUS_INT                           Accelerometer_Test
ASxxxx Linker V03.00 + NoICE + sdld,  page 9.
Hexadecimal  [32-Bits]

Area                                    Addr        Size        Decimal Bytes (Attributes)
--------------------------------        ----        ----        ------- ----- ------------
.  .ABS.                            00000000    00000000 =           0. bytes (ABS,CON)

      Value  Global                              Global Defined In Module
      -----  --------------------------------   ------------------------
     000000C3  _SI                                Accelerometer_Test
     000000C3  _SMB0ADR                           Accelerometer_Test
     000000C4  G$ADC0GTL$0$0                      Accelerometer_Test
     000000C4  G$BUS_STOP$0$0                     Accelerometer_Test
     000000C4  G$STO$0$0                          Accelerometer_Test
     000000C4  _ADC0GTL                           Accelerometer_Test
     000000C4  _BUS_STOP                          Accelerometer_Test
     000000C4  _STO                               Accelerometer_Test
     000000C5  G$ADC0GTH$0$0                      Accelerometer_Test
     000000C5  G$BUS_START$0$0                    Accelerometer_Test
     000000C5  G$STA$0$0                          Accelerometer_Test
     000000C5  _ADC0GTH                           Accelerometer_Test
     000000C5  _BUS_START                         Accelerometer_Test
     000000C5  _STA                               Accelerometer_Test
     000000C6  G$ADC0LTL$0$0                      Accelerometer_Test
     000000C6  G$BUS_EN$0$0                       Accelerometer_Test
     000000C6  G$ENSMB$0$0                        Accelerometer_Test
     000000C6  _ADC0LTL                           Accelerometer_Test
     000000C6  _BUS_EN                            Accelerometer_Test
     000000C6  _ENSMB                             Accelerometer_Test
     000000C7  G$ADC0LTH$0$0                      Accelerometer_Test
     000000C7  G$BUSY$0$0                         Accelerometer_Test
     000000C7  G$BUS_BUSY$0$0                     Accelerometer_Test
     000000C7  _ADC0LTH                           Accelerometer_Test
     000000C7  _BUSY                              Accelerometer_Test
     000000C7  _BUS_BUSY                          Accelerometer_Test
     000000C8  G$CPRL2$0$0                        Accelerometer_Test
     000000C8  G$T2CON$0$0                        Accelerometer_Test
     000000C8  _CPRL2                             Accelerometer_Test
     000000C8  _T2CON                             Accelerometer_Test
     000000C9  G$CT2$0$0                          Accelerometer_Test
     000000C9  G$T4CON$0$0                        Accelerometer_Test
     000000C9  _CT2                               Accelerometer_Test
     000000C9  _T4CON                             Accelerometer_Test
     000000CA  G$RCAP2L$0$0                       Accelerometer_Test
     000000CA  G$TR2$0$0                          Accelerometer_Test
     000000CA  _RCAP2L                            Accelerometer_Test
     000000CA  _TR2                               Accelerometer_Test
     000000CB  G$EXEN2$0$0                        Accelerometer_Test
     000000CB  G$RCAP2H$0$0                       Accelerometer_Test
     000000CB  _EXEN2                             Accelerometer_Test
     000000CB  _RCAP2H                            Accelerometer_Test
     000000CC  G$TCLK$0$0                         Accelerometer_Test
     000000CC  G$TL2$0$0                          Accelerometer_Test
     000000CC  _TCLK                              Accelerometer_Test
     000000CC  _TL2                               Accelerometer_Test
     000000CD  G$RCLK$0$0                         Accelerometer_Test
     000000CD  G$TH2$0$0                          Accelerometer_Test
     000000CD  _RCLK                              Accelerometer_Test
     000000CD  _TH2                               Accelerometer_Test
     000000CE  G$EXF2$0$0                         Accelerometer_Test
ASxxxx Linker V03.00 + NoICE + sdld,  page 10.
Hexadecimal  [32-Bits]

Area                                    Addr        Size        Decimal Bytes (Attributes)
--------------------------------        ----        ----        ------- ----- ------------
.  .ABS.                            00000000    00000000 =           0. bytes (ABS,CON)

      Value  Global                              Global Defined In Module
      -----  --------------------------------   ------------------------
     000000CE  _EXF2                              Accelerometer_Test
     000000CF  G$SMB0CR$0$0                       Accelerometer_Test
     000000CF  G$TF2$0$0                          Accelerometer_Test
     000000CF  _SMB0CR                            Accelerometer_Test
     000000CF  _TF2                               Accelerometer_Test
     000000D0  G$P$0$0                            Accelerometer_Test
     000000D0  G$PSW$0$0                          Accelerometer_Test
     000000D0  _P                                 Accelerometer_Test
     000000D0  _PSW                               Accelerometer_Test
     000000D1  G$F1$0$0                           Accelerometer_Test
     000000D1  G$REF0CN$0$0                       Accelerometer_Test
     000000D1  _F1                                Accelerometer_Test
     000000D1  _REF0CN                            Accelerometer_Test
     000000D2  G$DAC0L$0$0                        Accelerometer_Test
     000000D2  G$OV$0$0                           Accelerometer_Test
     000000D2  _DAC0L                             Accelerometer_Test
     000000D2  _OV                                Accelerometer_Test
     000000D3  G$DAC0H$0$0                        Accelerometer_Test
     000000D3  G$RS0$0$0                          Accelerometer_Test
     000000D3  _DAC0H                             Accelerometer_Test
     000000D3  _RS0                               Accelerometer_Test
     000000D4  G$DAC0CN$0$0                       Accelerometer_Test
     000000D4  G$RS1$0$0                          Accelerometer_Test
     000000D4  _DAC0CN                            Accelerometer_Test
     000000D4  _RS1                               Accelerometer_Test
     000000D5  G$DAC1L$0$0                        Accelerometer_Test
     000000D5  G$F0$0$0                           Accelerometer_Test
     000000D5  _DAC1L                             Accelerometer_Test
     000000D5  _F0                                Accelerometer_Test
     000000D6  G$AC$0$0                           Accelerometer_Test
     000000D6  G$DAC1H$0$0                        Accelerometer_Test
     000000D6  _AC                                Accelerometer_Test
     000000D6  _DAC1H                             Accelerometer_Test
     000000D7  G$CY$0$0                           Accelerometer_Test
     000000D7  G$DAC1CN$0$0                       Accelerometer_Test
     000000D7  _CY                                Accelerometer_Test
     000000D7  _DAC1CN                            Accelerometer_Test
     000000D8  G$CCF0$0$0                         Accelerometer_Test
     000000D8  G$PCA0CN$0$0                       Accelerometer_Test
     000000D8  _CCF0                              Accelerometer_Test
     000000D8  _PCA0CN                            Accelerometer_Test
     000000D9  G$CCF1$0$0                         Accelerometer_Test
     000000D9  G$PCA0MD$0$0                       Accelerometer_Test
     000000D9  _CCF1                              Accelerometer_Test
     000000D9  _PCA0MD                            Accelerometer_Test
     000000DA  G$CCF2$0$0                         Accelerometer_Test
     000000DA  G$PCA0CPM0$0$0                     Accelerometer_Test
     000000DA  _CCF2                              Accelerometer_Test
     000000DA  _PCA0CPM0                          Accelerometer_Test
     000000DB  G$CCF3$0$0                         Accelerometer_Test
     000000DB  G$PCA0CPM1$0$0                     Accelerometer_Test
ASxxxx Linker V03.00 + NoICE + sdld,  page 11.
Hexadecimal  [32-Bits]

Area                                    Addr        Size        Decimal Bytes (Attributes)
--------------------------------        ----        ----        ------- ----- ------------
.  .ABS.                            00000000    00000000 =           0. bytes (ABS,CON)

      Value  Global                              Global Defined In Module
      -----  --------------------------------   ------------------------
     000000DB  _CCF3                              Accelerometer_Test
     000000DB  _PCA0CPM1                          Accelerometer_Test
     000000DC  G$CCF4$0$0                         Accelerometer_Test
     000000DC  G$PCA0CPM2$0$0                     Accelerometer_Test
     000000DC  _CCF4                              Accelerometer_Test
     000000DC  _PCA0CPM2                          Accelerometer_Test
     000000DD  G$PCA0CPM3$0$0                     Accelerometer_Test
     000000DD  _PCA0CPM3                          Accelerometer_Test
     000000DE  G$CR$0$0                           Accelerometer_Test
     000000DE  G$PCA0CPM4$0$0                     Accelerometer_Test
     000000DE  _CR                                Accelerometer_Test
     000000DE  _PCA0CPM4                          Accelerometer_Test
     000000DF  G$CF$0$0                           Accelerometer_Test
     000000DF  _CF                                Accelerometer_Test
     000000E0  G$ACC$0$0                          Accelerometer_Test
     000000E0  _ACC                               Accelerometer_Test
     000000E1  G$XBR0$0$0                         Accelerometer_Test
     000000E1  _XBR0                              Accelerometer_Test
     000000E2  G$XBR1$0$0                         Accelerometer_Test
     000000E2  _XBR1                              Accelerometer_Test
     000000E3  G$XBR2$0$0                         Accelerometer_Test
     000000E3  _XBR2                              Accelerometer_Test
     000000E4  G$RCAP4L$0$0                       Accelerometer_Test
     000000E4  _RCAP4L                            Accelerometer_Test
     000000E5  G$RCAP4H$0$0                       Accelerometer_Test
     000000E5  _RCAP4H                            Accelerometer_Test
     000000E6  G$EIE1$0$0                         Accelerometer_Test
     000000E6  _EIE1                              Accelerometer_Test
     000000E7  G$EIE2$0$0                         Accelerometer_Test
     000000E7  _EIE2                              Accelerometer_Test
     000000E8  G$AD0LJST$0$0                      Accelerometer_Test
     000000E8  G$ADC0CN$0$0                       Accelerometer_Test
     000000E8  G$ADLJST$0$0                       Accelerometer_Test
     000000E8  _AD0LJST                           Accelerometer_Test
     000000E8  _ADC0CN                            Accelerometer_Test
     000000E8  _ADLJST                            Accelerometer_Test
     000000E9  G$AD0WINT$0$0                      Accelerometer_Test
     000000E9  G$ADWINT$0$0                       Accelerometer_Test
     000000E9  G$PCA0L$0$0                        Accelerometer_Test
     000000E9  _AD0WINT                           Accelerometer_Test
     000000E9  _ADWINT                            Accelerometer_Test
     000000E9  _PCA0L                             Accelerometer_Test
     000000EA  G$AD0CM0$0$0                       Accelerometer_Test
     000000EA  G$ADSTM0$0$0                       Accelerometer_Test
     000000EA  G$PCA0CPL0$0$0                     Accelerometer_Test
     000000EA  _AD0CM0                            Accelerometer_Test
     000000EA  _ADSTM0                            Accelerometer_Test
     000000EA  _PCA0CPL0                          Accelerometer_Test
     000000EB  G$AD0CM1$0$0                       Accelerometer_Test
     000000EB  G$ADSTM1$0$0                       Accelerometer_Test
     000000EB  G$PCA0CPL1$0$0                     Accelerometer_Test
ASxxxx Linker V03.00 + NoICE + sdld,  page 12.
Hexadecimal  [32-Bits]

Area                                    Addr        Size        Decimal Bytes (Attributes)
--------------------------------        ----        ----        ------- ----- ------------
.  .ABS.                            00000000    00000000 =           0. bytes (ABS,CON)

      Value  Global                              Global Defined In Module
      -----  --------------------------------   ------------------------
     000000EB  _AD0CM1                            Accelerometer_Test
     000000EB  _ADSTM1                            Accelerometer_Test
     000000EB  _PCA0CPL1                          Accelerometer_Test
     000000EC  G$AD0BUSY$0$0                      Accelerometer_Test
     000000EC  G$ADBUSY$0$0                       Accelerometer_Test
     000000EC  G$PCA0CPL2$0$0                     Accelerometer_Test
     000000EC  _AD0BUSY                           Accelerometer_Test
     000000EC  _ADBUSY                            Accelerometer_Test
     000000EC  _PCA0CPL2                          Accelerometer_Test
     000000ED  G$AD0INT$0$0                       Accelerometer_Test
     000000ED  G$ADCINT$0$0                       Accelerometer_Test
     000000ED  G$PCA0CPL3$0$0                     Accelerometer_Test
     000000ED  _AD0INT                            Accelerometer_Test
     000000ED  _ADCINT                            Accelerometer_Test
     000000ED  _PCA0CPL3                          Accelerometer_Test
     000000EE  G$AD0TM$0$0                        Accelerometer_Test
     000000EE  G$ADCTM$0$0                        Accelerometer_Test
     000000EE  G$PCA0CPL4$0$0                     Accelerometer_Test
     000000EE  _AD0TM                             Accelerometer_Test
     000000EE  _ADCTM                             Accelerometer_Test
     000000EE  _PCA0CPL4                          Accelerometer_Test
     000000EF  G$AD0EN$0$0                        Accelerometer_Test
     000000EF  G$ADCEN$0$0                        Accelerometer_Test
     000000EF  G$RSTSRC$0$0                       Accelerometer_Test
     000000EF  _AD0EN                             Accelerometer_Test
     000000EF  _ADCEN                             Accelerometer_Test
     000000EF  _RSTSRC                            Accelerometer_Test
     000000F0  G$B$0$0                            Accelerometer_Test
     000000F0  _B                                 Accelerometer_Test
     000000F1  G$SCON1$0$0                        Accelerometer_Test
     000000F1  _SCON1                             Accelerometer_Test
     000000F2  G$SBUF1$0$0                        Accelerometer_Test
     000000F2  _SBUF1                             Accelerometer_Test
     000000F3  G$SADDR1$0$0                       Accelerometer_Test
     000000F3  _SADDR1                            Accelerometer_Test
     000000F4  G$TL4$0$0                          Accelerometer_Test
     000000F4  _TL4                               Accelerometer_Test
     000000F5  G$TH4$0$0                          Accelerometer_Test
     000000F5  _B_5                               _gptrget
     000000F5  _TH4                               Accelerometer_Test
     000000F6  G$EIP1$0$0                         Accelerometer_Test
     000000F6  _B_6                               _gptrget
     000000F6  _EIP1                              Accelerometer_Test
     000000F7  G$EIP2$0$0                         Accelerometer_Test
     000000F7  _B_7                               _gptrget
     000000F7  _EIP2                              Accelerometer_Test
     000000F8  G$SPI0CN$0$0                       Accelerometer_Test
     000000F8  G$SPIEN$0$0                        Accelerometer_Test
     000000F8  _SPI0CN                            Accelerometer_Test
     000000F8  _SPIEN                             Accelerometer_Test
     000000F9  G$MSTEN$0$0                        Accelerometer_Test
ASxxxx Linker V03.00 + NoICE + sdld,  page 13.
Hexadecimal  [32-Bits]

Area                                    Addr        Size        Decimal Bytes (Attributes)
--------------------------------        ----        ----        ------- ----- ------------
.  .ABS.                            00000000    00000000 =           0. bytes (ABS,CON)

      Value  Global                              Global Defined In Module
      -----  --------------------------------   ------------------------
     000000F9  G$PCA0H$0$0                        Accelerometer_Test
     000000F9  _MSTEN                             Accelerometer_Test
     000000F9  _PCA0H                             Accelerometer_Test
     000000FA  G$PCA0CPH0$0$0                     Accelerometer_Test
     000000FA  G$SLVSEL$0$0                       Accelerometer_Test
     000000FA  _PCA0CPH0                          Accelerometer_Test
     000000FA  _SLVSEL                            Accelerometer_Test
     000000FB  G$PCA0CPH1$0$0                     Accelerometer_Test
     000000FB  G$TXBSY$0$0                        Accelerometer_Test
     000000FB  _PCA0CPH1                          Accelerometer_Test
     000000FB  _TXBSY                             Accelerometer_Test
     000000FC  G$PCA0CPH2$0$0                     Accelerometer_Test
     000000FC  G$RXOVRN$0$0                       Accelerometer_Test
     000000FC  _PCA0CPH2                          Accelerometer_Test
     000000FC  _RXOVRN                            Accelerometer_Test
     000000FD  G$MODF$0$0                         Accelerometer_Test
     000000FD  G$PCA0CPH3$0$0                     Accelerometer_Test
     000000FD  _MODF                              Accelerometer_Test
     000000FD  _PCA0CPH3                          Accelerometer_Test
     000000FE  G$PCA0CPH4$0$0                     Accelerometer_Test
     000000FE  G$WCOL$0$0                         Accelerometer_Test
     000000FE  _PCA0CPH4                          Accelerometer_Test
     000000FE  _WCOL                              Accelerometer_Test
     000000FF  G$SPIF$0$0                         Accelerometer_Test
     000000FF  G$WDTCN$0$0                        Accelerometer_Test
     000000FF  _SPIF                              Accelerometer_Test
     000000FF  _WDTCN                             Accelerometer_Test
     00008C8A  G$TMR0$0$0                         Accelerometer_Test
     00008C8A  _TMR0                              Accelerometer_Test
     00008D8B  G$TMR1$0$0                         Accelerometer_Test
     00008D8B  _TMR1                              Accelerometer_Test
     00009392  G$TMR3RL$0$0                       Accelerometer_Test
     00009392  _TMR3RL                            Accelerometer_Test
     00009594  G$TMR3$0$0                         Accelerometer_Test
     00009594  _TMR3                              Accelerometer_Test
     0000BFBE  G$ADC0$0$0                         Accelerometer_Test
     0000BFBE  _ADC0                              Accelerometer_Test
     0000C5C4  G$ADC0GT$0$0                       Accelerometer_Test
     0000C5C4  _ADC0GT                            Accelerometer_Test
     0000C7C6  G$ADC0LT$0$0                       Accelerometer_Test
     0000C7C6  _ADC0LT                            Accelerometer_Test
     0000CBCA  G$RCAP2$0$0                        Accelerometer_Test
     0000CBCA  _RCAP2                             Accelerometer_Test
     0000CDCC  G$TMR2$0$0                         Accelerometer_Test
     0000CDCC  _TMR2                              Accelerometer_Test
     0000D3D2  G$DAC0$0$0                         Accelerometer_Test
     0000D3D2  _DAC0                              Accelerometer_Test
     0000D6D5  G$DAC1$0$0                         Accelerometer_Test
     0000D6D5  _DAC1                              Accelerometer_Test
     0000E5E4  G$RCAP4$0$0                        Accelerometer_Test
     0000E5E4  _RCAP4                             Accelerometer_Test
ASxxxx Linker V03.00 + NoICE + sdld,  page 14.
Hexadecimal  [32-Bits]

Area                                    Addr        Size        Decimal Bytes (Attributes)
--------------------------------        ----        ----        ------- ----- ------------
.  .ABS.                            00000000    00000000 =           0. bytes (ABS,CON)

      Value  Global                              Global Defined In Module
      -----  --------------------------------   ------------------------
     0000F5F4  G$TMR4$0$0                         Accelerometer_Test
     0000F5F4  _TMR4                              Accelerometer_Test
     0000F9E9  G$PCA0$0$0                         Accelerometer_Test
     0000F9E9  _PCA0                              Accelerometer_Test
     0000FAEA  G$PCA0CP0$0$0                      Accelerometer_Test
     0000FAEA  _PCA0CP0                           Accelerometer_Test
     0000FBEB  G$PCA0CP1$0$0                      Accelerometer_Test
     0000FBEB  _PCA0CP1                           Accelerometer_Test
     0000FCEC  G$PCA0CP2$0$0                      Accelerometer_Test
     0000FCEC  _PCA0CP2                           Accelerometer_Test
     0000FDED  G$PCA0CP3$0$0                      Accelerometer_Test
     0000FDED  _PCA0CP3                           Accelerometer_Test
     0000FEEE  G$PCA0CP4$0$0                      Accelerometer_Test
     0000FEEE  _PCA0CP4                           Accelerometer_Test

ASxxxx Linker V03.00 + NoICE + sdld,  page 15.
Hexadecimal  [32-Bits]

Area                                    Addr        Size        Decimal Bytes (Attributes)
--------------------------------        ----        ----        ------- ----- ------------
BSEG_BYTES                          00000020    00000002 =           2. bytes (REL,CON)

      Value  Global                              Global Defined In Module
      -----  --------------------------------   ------------------------
ASxxxx Linker V03.00 + NoICE + sdld,  page 16.
Hexadecimal  [32-Bits]

Area                                    Addr        Size        Decimal Bytes (Attributes)
--------------------------------        ----        ----        ------- ----- ------------
REG_BANK_0                          00000000    00000008 =           8. bytes (REL,OVR)

      Value  Global                              Global Defined In Module
      -----  --------------------------------   ------------------------
ASxxxx Linker V03.00 + NoICE + sdld,  page 17.
Hexadecimal  [32-Bits]

Area                                    Addr        Size        Decimal Bytes (Attributes)
--------------------------------        ----        ----        ------- ----- ------------
DSEG                                00000000    0000007D =         125. bytes (REL,CON)

      Value  Global                              Global Defined In Module
      -----  --------------------------------   ------------------------
     00000008  _vsprintf_PARM_2                   sprintf
     0000000B  _vsprintf_PARM_3                   sprintf
     0000000F  _bp                                _bp
     00000010  _vprintf_PARM_2                    vprintf
     00000022  LAccelerometer_Test.lcd_clear$Nu   Accelerometer_Test
     00000023  LAccelerometer_Test.lcd_clear$Cm   Accelerometer_Test
     00000025  LAccelerometer_Test.read_keypad$   Accelerometer_Test
     00000027  LAccelerometer_Test.i2c_write_da   Accelerometer_Test
     00000027  _i2c_write_data_PARM_2             Accelerometer_Test
     00000028  LAccelerometer_Test.i2c_write_da   Accelerometer_Test
     00000028  _i2c_write_data_PARM_3             Accelerometer_Test
     0000002B  LAccelerometer_Test.i2c_write_da   Accelerometer_Test
     0000002B  _i2c_write_data_PARM_4             Accelerometer_Test
     0000002C  LAccelerometer_Test.i2c_read_dat   Accelerometer_Test
     0000002C  _i2c_read_data_PARM_2              Accelerometer_Test
     0000002D  LAccelerometer_Test.i2c_read_dat   Accelerometer_Test
     0000002D  _i2c_read_data_PARM_3              Accelerometer_Test
     00000030  LAccelerometer_Test.i2c_read_dat   Accelerometer_Test
     00000030  _i2c_read_data_PARM_4              Accelerometer_Test
     00000031  LAccelerometer_Test.Accel_Init$D   Accelerometer_Test
     00000032  G$avg_gx$0$0                       Accelerometer_Test
     00000032  _avg_gx                            Accelerometer_Test
     00000034  G$avg_gy$0$0                       Accelerometer_Test
     00000034  _avg_gy                            Accelerometer_Test
     00000036  G$Counts$0$0                       Accelerometer_Test
     00000036  _Counts                            Accelerometer_Test
     00000038  G$nCounts$0$0                      Accelerometer_Test
     00000038  _nCounts                           Accelerometer_Test
     0000003A  G$a_count$0$0                      Accelerometer_Test
     0000003A  _a_count                           Accelerometer_Test
     0000003B  G$delay$0$0                        Accelerometer_Test
     0000003B  _delay                             Accelerometer_Test
     0000003C  G$new_accel$0$0                    Accelerometer_Test
     0000003C  _new_accel                         Accelerometer_Test
     0000003D  G$print_delay$0$0                  Accelerometer_Test
     0000003D  _print_delay                       Accelerometer_Test
     0000003E  G$gx$0$0                           Accelerometer_Test
     0000003E  _gx                                Accelerometer_Test
     00000040  G$gy$0$0                           Accelerometer_Test
     00000040  _gy                                Accelerometer_Test
     00000042  G$gx_adj$0$0                       Accelerometer_Test
     00000042  _gx_adj                            Accelerometer_Test
     00000043  G$gy_adj$0$0                       Accelerometer_Test
     00000043  _gy_adj                            Accelerometer_Test
     00000044  LAccelerometer_Test.status_reg_a   Accelerometer_Test
     00000046  LAccelerometer_Test.read_accel$D   Accelerometer_Test
     0000004A  LAccelerometer_Test.read_accel$a   Accelerometer_Test
     0000004B  LAccelerometer_Test.read_accel$x   Accelerometer_Test
     0000004D  LAccelerometer_Test.read_accel$y   Accelerometer_Test
     0000005B  __print_format_PARM_2              printf_large
ASxxxx Linker V03.00 + NoICE + sdld,  page 18.
Hexadecimal  [32-Bits]

Area                                    Addr        Size        Decimal Bytes (Attributes)
--------------------------------        ----        ----        ------- ----- ------------
DSEG                                00000000    0000007D =         125. bytes (REL,CON)

      Value  Global                              Global Defined In Module
      -----  --------------------------------   ------------------------
     0000005E  __print_format_PARM_3              printf_large
     00000061  __print_format_PARM_4              printf_large

ASxxxx Linker V03.00 + NoICE + sdld,  page 19.
Hexadecimal  [32-Bits]

Area                                    Addr        Size        Decimal Bytes (Attributes)
--------------------------------        ----        ----        ------- ----- ------------
OSEG                                00000011    00000006 =           6. bytes (REL,OVR)

      Value  Global                              Global Defined In Module
      -----  --------------------------------   ------------------------
     00000011  __divsint_PARM_2                   _divuint
     00000011  __divuint_PARM_2                   _divuint
     00000011  __gptrput_PARM_2                   _gptrput
     00000011  __mulint_PARM_2                    _mulint

ASxxxx Linker V03.00 + NoICE + sdld,  page 20.
Hexadecimal  [32-Bits]

Area                                    Addr        Size        Decimal Bytes (Attributes)
--------------------------------        ----        ----        ------- ----- ------------
ISEG                                00000017    00000006 =           6. bytes (REL,CON)

      Value  Global                              Global Defined In Module
      -----  --------------------------------   ------------------------
ASxxxx Linker V03.00 + NoICE + sdld,  page 21.
Hexadecimal  [32-Bits]

Area                                    Addr        Size        Decimal Bytes (Attributes)
--------------------------------        ----        ----        ------- ----- ------------
SSEG                                00000069    00000097 =         151. bytes (REL,OVR)

      Value  Global                              Global Defined In Module
      -----  --------------------------------   ------------------------
     00000069  __start__stack                     Accelerometer_Test

ASxxxx Linker V03.00 + NoICE + sdld,  page 22.
Hexadecimal  [32-Bits]

Area                                    Addr        Size        Decimal Bytes (Attributes)
--------------------------------        ----        ----        ------- ----- ------------
XSEG                                00000001    00000050 =          80. bytes (REL,CON,XDATA)

      Value  Global                              Global Defined In Module
      -----  --------------------------------   ------------------------
D:   00000001  LAccelerometer_Test.lcd_print$te   Accelerometer_Test

ASxxxx Linker V03.00 + NoICE + sdld,  page 23.
Hexadecimal  [32-Bits]

Area                                    Addr        Size        Decimal Bytes (Attributes)
--------------------------------        ----        ----        ------- ----- ------------
HOME                                00000000    00000051 =          81. bytes (REL,CON,CODE)

      Value  Global                              Global Defined In Module
      -----  --------------------------------   ------------------------
C:   00000000  A$Accelerometer_Test$1079          Accelerometer_Test
C:   00000003  A$Accelerometer_Test$1080          Accelerometer_Test
C:   0000000B  A$Accelerometer_Test$1082          Accelerometer_Test
C:   00000013  A$Accelerometer_Test$1084          Accelerometer_Test
C:   0000001B  A$Accelerometer_Test$1086          Accelerometer_Test
C:   00000023  A$Accelerometer_Test$1088          Accelerometer_Test
C:   0000002B  A$Accelerometer_Test$1090          Accelerometer_Test
C:   00000033  A$Accelerometer_Test$1092          Accelerometer_Test
C:   0000003B  A$Accelerometer_Test$1094          Accelerometer_Test
C:   00000043  A$Accelerometer_Test$1096          Accelerometer_Test
C:   0000004B  A$Accelerometer_Test$1098          Accelerometer_Test
C:   0000004E  A$Accelerometer_Test$1161          Accelerometer_Test
C:   0000004E  __sdcc_program_startup             Accelerometer_Test

ASxxxx Linker V03.00 + NoICE + sdld,  page 24.
Hexadecimal  [32-Bits]

Area                                    Addr        Size        Decimal Bytes (Attributes)
--------------------------------        ----        ----        ------- ----- ------------
GSINIT0                             00000051    00000003 =           3. bytes (REL,CON,CODE)

      Value  Global                              Global Defined In Module
      -----  --------------------------------   ------------------------
C:   00000051  __sdcc_gsinit_startup              

ASxxxx Linker V03.00 + NoICE + sdld,  page 25.
Hexadecimal  [32-Bits]

Area                                    Addr        Size        Decimal Bytes (Attributes)
--------------------------------        ----        ----        ------- ----- ------------
GSINIT2                             00000054    0000000A =          10. bytes (REL,CON,CODE)

      Value  Global                              Global Defined In Module
      -----  --------------------------------   ------------------------
ASxxxx Linker V03.00 + NoICE + sdld,  page 26.
Hexadecimal  [32-Bits]

Area                                    Addr        Size        Decimal Bytes (Attributes)
--------------------------------        ----        ----        ------- ----- ------------
GSINIT3                             0000005E    00000022 =          34. bytes (REL,CON,CODE)

      Value  Global                              Global Defined In Module
      -----  --------------------------------   ------------------------
C:   0000005E  __mcs51_genXINIT                   

ASxxxx Linker V03.00 + NoICE + sdld,  page 27.
Hexadecimal  [32-Bits]

Area                                    Addr        Size        Decimal Bytes (Attributes)
--------------------------------        ----        ----        ------- ----- ------------
GSINIT4                             00000080    0000002A =          42. bytes (REL,CON,CODE)

      Value  Global                              Global Defined In Module
      -----  --------------------------------   ------------------------
C:   00000080  __mcs51_genRAMCLEAR                
C:   00000086  __mcs51_genXRAMCLEAR               

ASxxxx Linker V03.00 + NoICE + sdld,  page 28.
Hexadecimal  [32-Bits]

Area                                    Addr        Size        Decimal Bytes (Attributes)
--------------------------------        ----        ----        ------- ----- ------------
GSINIT                              000000AA    0000001D =          29. bytes (REL,CON,CODE)

      Value  Global                              Global Defined In Module
      -----  --------------------------------   ------------------------
C:   000000AA  A$Accelerometer_Test$1114          Accelerometer_Test
C:   000000AA  C$Accelerometer_Test.c$27$1$136    Accelerometer_Test
C:   000000AB  A$Accelerometer_Test$1115          Accelerometer_Test
C:   000000AD  A$Accelerometer_Test$1116          Accelerometer_Test
C:   000000AF  A$Accelerometer_Test$1119          Accelerometer_Test
C:   000000AF  C$Accelerometer_Test.c$28$1$136    Accelerometer_Test
C:   000000B1  A$Accelerometer_Test$1120          Accelerometer_Test
C:   000000B3  A$Accelerometer_Test$1124          Accelerometer_Test
C:   000000B3  C$Accelerometer_Test.c$31$1$136    Accelerometer_Test
C:   000000B5  A$Accelerometer_Test$1128          Accelerometer_Test
C:   000000B5  C$Accelerometer_Test.c$32$1$136    Accelerometer_Test
C:   000000B7  A$Accelerometer_Test$1132          Accelerometer_Test
C:   000000B7  C$Accelerometer_Test.c$33$1$136    Accelerometer_Test
C:   000000B9  A$Accelerometer_Test$1136          Accelerometer_Test
C:   000000B9  C$Accelerometer_Test.c$36$1$136    Accelerometer_Test
C:   000000BB  A$Accelerometer_Test$1139          Accelerometer_Test
C:   000000BB  C$Accelerometer_Test.c$37$1$136    Accelerometer_Test
C:   000000BD  A$Accelerometer_Test$1140          Accelerometer_Test
C:   000000BF  A$Accelerometer_Test$1143          Accelerometer_Test
C:   000000BF  C$Accelerometer_Test.c$38$1$136    Accelerometer_Test
C:   000000C1  A$Accelerometer_Test$1144          Accelerometer_Test
C:   000000C3  A$Accelerometer_Test$1148          Accelerometer_Test
C:   000000C3  C$Accelerometer_Test.c$39$1$136    Accelerometer_Test
C:   000000C5  A$Accelerometer_Test$1152          Accelerometer_Test
C:   000000C5  C$Accelerometer_Test.c$40$1$136    Accelerometer_Test

ASxxxx Linker V03.00 + NoICE + sdld,  page 29.
Hexadecimal  [32-Bits]

Area                                    Addr        Size        Decimal Bytes (Attributes)
--------------------------------        ----        ----        ------- ----- ------------
GSFINAL                             000000C7    00000003 =           3. bytes (REL,CON,CODE)

      Value  Global                              Global Defined In Module
      -----  --------------------------------   ------------------------
C:   000000C7  A$Accelerometer_Test$1154          Accelerometer_Test

ASxxxx Linker V03.00 + NoICE + sdld,  page 30.
Hexadecimal  [32-Bits]

Area                                    Addr        Size        Decimal Bytes (Attributes)
--------------------------------        ----        ----        ------- ----- ------------
CSEG                                000000CA    00000EA8 =        3752. bytes (REL,CON,CODE)

      Value  Global                              Global Defined In Module
      -----  --------------------------------   ------------------------
C:   000000CA  A$Accelerometer_Test$1189          Accelerometer_Test
C:   000000CA  C$c8051_SDCC.h$42$0$0              Accelerometer_Test
C:   000000CA  C$c8051_SDCC.h$46$1$31             Accelerometer_Test
C:   000000CA  G$SYSCLK_Init$0$0                  Accelerometer_Test
C:   000000CA  _SYSCLK_Init                       Accelerometer_Test
C:   000000CD  A$Accelerometer_Test$1192          Accelerometer_Test
C:   000000CD  C$c8051_SDCC.h$49$1$31             Accelerometer_Test
C:   000000CF  A$Accelerometer_Test$1193          Accelerometer_Test
C:   000000D1  A$Accelerometer_Test$1195          Accelerometer_Test
C:   000000D2  A$Accelerometer_Test$1196          Accelerometer_Test
C:   000000D5  A$Accelerometer_Test$1197          Accelerometer_Test
C:   000000D6  A$Accelerometer_Test$1199          Accelerometer_Test
C:   000000D7  A$Accelerometer_Test$1200          Accelerometer_Test
C:   000000D8  A$Accelerometer_Test$1201          Accelerometer_Test
C:   000000DA  A$Accelerometer_Test$1205          Accelerometer_Test
C:   000000DA  C$c8051_SDCC.h$51$1$31             Accelerometer_Test
C:   000000DC  A$Accelerometer_Test$1206          Accelerometer_Test
C:   000000DF  A$Accelerometer_Test$1209          Accelerometer_Test
C:   000000DF  C$c8051_SDCC.h$53$1$31             Accelerometer_Test
C:   000000E2  A$Accelerometer_Test$1212          Accelerometer_Test
C:   000000E2  C$c8051_SDCC.h$56$1$31             Accelerometer_Test
C:   000000E2  XG$SYSCLK_Init$0$0                 Accelerometer_Test
C:   000000E3  A$Accelerometer_Test$1225          Accelerometer_Test
C:   000000E3  C$c8051_SDCC.h$64$1$31             Accelerometer_Test
C:   000000E3  C$c8051_SDCC.h$66$1$33             Accelerometer_Test
C:   000000E3  G$UART0_Init$0$0                   Accelerometer_Test
C:   000000E3  _UART0_Init                        Accelerometer_Test
C:   000000E6  A$Accelerometer_Test$1228          Accelerometer_Test
C:   000000E6  C$c8051_SDCC.h$67$1$33             Accelerometer_Test
C:   000000E9  A$Accelerometer_Test$1231          Accelerometer_Test
C:   000000E9  C$c8051_SDCC.h$68$1$33             Accelerometer_Test
C:   000000EC  A$Accelerometer_Test$1234          Accelerometer_Test
C:   000000EC  C$c8051_SDCC.h$69$1$33             Accelerometer_Test
C:   000000EE  A$Accelerometer_Test$1237          Accelerometer_Test
C:   000000EE  C$c8051_SDCC.h$70$1$33             Accelerometer_Test
C:   000000F1  A$Accelerometer_Test$1240          Accelerometer_Test
C:   000000F1  C$c8051_SDCC.h$71$1$33             Accelerometer_Test
C:   000000F4  A$Accelerometer_Test$1243          Accelerometer_Test
C:   000000F4  C$c8051_SDCC.h$73$1$33             Accelerometer_Test
C:   000000F6  A$Accelerometer_Test$1246          Accelerometer_Test
C:   000000F6  C$c8051_SDCC.h$74$1$33             Accelerometer_Test
C:   000000F9  A$Accelerometer_Test$1249          Accelerometer_Test
C:   000000F9  C$c8051_SDCC.h$75$1$33             Accelerometer_Test
C:   000000F9  XG$UART0_Init$0$0                  Accelerometer_Test
C:   000000FA  A$Accelerometer_Test$1262          Accelerometer_Test
C:   000000FA  C$c8051_SDCC.h$83$1$33             Accelerometer_Test
C:   000000FA  C$c8051_SDCC.h$85$1$35             Accelerometer_Test
C:   000000FA  G$Sys_Init$0$0                     Accelerometer_Test
C:   000000FA  _Sys_Init                          Accelerometer_Test
C:   000000FD  A$Accelerometer_Test$1265          Accelerometer_Test
ASxxxx Linker V03.00 + NoICE + sdld,  page 31.
Hexadecimal  [32-Bits]

Area                                    Addr        Size        Decimal Bytes (Attributes)
--------------------------------        ----        ----        ------- ----- ------------
CSEG                                000000CA    00000EA8 =        3752. bytes (REL,CON,CODE)

      Value  Global                              Global Defined In Module
      -----  --------------------------------   ------------------------
C:   000000FD  C$c8051_SDCC.h$86$1$35             Accelerometer_Test
C:   00000100  A$Accelerometer_Test$1268          Accelerometer_Test
C:   00000100  C$c8051_SDCC.h$88$1$35             Accelerometer_Test
C:   00000103  A$Accelerometer_Test$1271          Accelerometer_Test
C:   00000103  C$c8051_SDCC.h$89$1$35             Accelerometer_Test
C:   00000106  A$Accelerometer_Test$1274          Accelerometer_Test
C:   00000106  C$c8051_SDCC.h$91$1$35             Accelerometer_Test
C:   00000109  A$Accelerometer_Test$1277          Accelerometer_Test
C:   00000109  C$c8051_SDCC.h$92$1$35             Accelerometer_Test
C:   0000010C  A$Accelerometer_Test$1280          Accelerometer_Test
C:   0000010C  C$c8051_SDCC.h$93$1$35             Accelerometer_Test
C:   0000010C  XG$Sys_Init$0$0                    Accelerometer_Test
C:   0000010D  A$Accelerometer_Test$1293          Accelerometer_Test
C:   0000010D  C$c8051_SDCC.h$98$1$35             Accelerometer_Test
C:   0000010D  G$putchar$0$0                      Accelerometer_Test
C:   0000010D  _putchar                           Accelerometer_Test
C:   0000010F  A$Accelerometer_Test$1299          Accelerometer_Test
C:   0000010F  C$c8051_SDCC.h$100$1$37            Accelerometer_Test
C:   0000010F  C$c8051_SDCC.h$101$1$37            Accelerometer_Test
C:   00000112  A$Accelerometer_Test$1300          Accelerometer_Test
C:   00000114  A$Accelerometer_Test$1304          Accelerometer_Test
C:   00000114  C$c8051_SDCC.h$102$1$37            Accelerometer_Test
C:   00000116  A$Accelerometer_Test$1307          Accelerometer_Test
C:   00000116  C$c8051_SDCC.h$103$1$37            Accelerometer_Test
C:   00000116  XG$putchar$0$0                     Accelerometer_Test
C:   00000117  A$Accelerometer_Test$1325          Accelerometer_Test
C:   00000117  C$c8051_SDCC.h$108$1$37            Accelerometer_Test
C:   00000117  C$c8051_SDCC.h$111$1$39            Accelerometer_Test
C:   00000117  C$c8051_SDCC.h$112$1$39            Accelerometer_Test
C:   00000117  G$getchar$0$0                      Accelerometer_Test
C:   00000117  _getchar                           Accelerometer_Test
C:   0000011A  A$Accelerometer_Test$1326          Accelerometer_Test
C:   0000011C  A$Accelerometer_Test$1330          Accelerometer_Test
C:   0000011C  C$c8051_SDCC.h$113$1$39            Accelerometer_Test
C:   0000011F  A$Accelerometer_Test$1333          Accelerometer_Test
C:   0000011F  C$c8051_SDCC.h$114$1$39            Accelerometer_Test
C:   00000122  A$Accelerometer_Test$1336          Accelerometer_Test
C:   00000122  C$c8051_SDCC.h$115$1$39            Accelerometer_Test
C:   00000125  A$Accelerometer_Test$1339          Accelerometer_Test
C:   00000125  C$c8051_SDCC.h$116$1$39            Accelerometer_Test
C:   00000125  XG$getchar$0$0                     Accelerometer_Test
C:   00000126  A$Accelerometer_Test$1356          Accelerometer_Test
C:   00000126  C$i2c.h$81$1$39                    Accelerometer_Test
C:   00000126  G$lcd_print$0$0                    Accelerometer_Test
C:   00000126  _lcd_print                         Accelerometer_Test
C:   00000128  A$Accelerometer_Test$1357          Accelerometer_Test
C:   0000012B  A$Accelerometer_Test$1360          Accelerometer_Test
C:   0000012B  C$i2c.h$87$1$73                    Accelerometer_Test
C:   0000012D  A$Accelerometer_Test$1361          Accelerometer_Test
C:   0000012F  A$Accelerometer_Test$1362          Accelerometer_Test
C:   00000130  A$Accelerometer_Test$1363          Accelerometer_Test
ASxxxx Linker V03.00 + NoICE + sdld,  page 32.
Hexadecimal  [32-Bits]

Area                                    Addr        Size        Decimal Bytes (Attributes)
--------------------------------        ----        ----        ------- ----- ------------
CSEG                                000000CA    00000EA8 =        3752. bytes (REL,CON,CODE)

      Value  Global                              Global Defined In Module
      -----  --------------------------------   ------------------------
C:   00000132  A$Accelerometer_Test$1364          Accelerometer_Test
C:   00000133  A$Accelerometer_Test$1365          Accelerometer_Test
C:   00000135  A$Accelerometer_Test$1366          Accelerometer_Test
C:   00000136  A$Accelerometer_Test$1367          Accelerometer_Test
C:   00000138  A$Accelerometer_Test$1368          Accelerometer_Test
C:   0000013B  A$Accelerometer_Test$1369          Accelerometer_Test
C:   0000013D  A$Accelerometer_Test$1370          Accelerometer_Test
C:   00000140  A$Accelerometer_Test$1371          Accelerometer_Test
C:   00000142  A$Accelerometer_Test$1372          Accelerometer_Test
C:   00000144  A$Accelerometer_Test$1373          Accelerometer_Test
C:   00000146  A$Accelerometer_Test$1377          Accelerometer_Test
C:   00000146  C$i2c.h$89$2$74                    Accelerometer_Test
C:   00000148  A$Accelerometer_Test$1378          Accelerometer_Test
C:   0000014A  A$Accelerometer_Test$1379          Accelerometer_Test
C:   0000014B  A$Accelerometer_Test$1380          Accelerometer_Test
C:   0000014D  A$Accelerometer_Test$1383          Accelerometer_Test
C:   0000014D  C$i2c.h$90$1$73                    Accelerometer_Test
C:   0000014F  A$Accelerometer_Test$1384          Accelerometer_Test
C:   00000151  A$Accelerometer_Test$1385          Accelerometer_Test
C:   00000152  A$Accelerometer_Test$1386          Accelerometer_Test
C:   00000154  A$Accelerometer_Test$1387          Accelerometer_Test
C:   00000155  A$Accelerometer_Test$1388          Accelerometer_Test
C:   00000157  A$Accelerometer_Test$1389          Accelerometer_Test
C:   00000158  A$Accelerometer_Test$1390          Accelerometer_Test
C:   0000015A  A$Accelerometer_Test$1391          Accelerometer_Test
C:   0000015D  A$Accelerometer_Test$1392          Accelerometer_Test
C:   00000160  A$Accelerometer_Test$1393          Accelerometer_Test
C:   00000163  A$Accelerometer_Test$1396          Accelerometer_Test
C:   00000163  C$i2c.h$93$1$73                    Accelerometer_Test
C:   00000166  A$Accelerometer_Test$1397          Accelerometer_Test
C:   00000169  A$Accelerometer_Test$1398          Accelerometer_Test
C:   0000016C  A$Accelerometer_Test$1399          Accelerometer_Test
C:   0000016E  A$Accelerometer_Test$1402          Accelerometer_Test
C:   00000170  A$Accelerometer_Test$1404          Accelerometer_Test
C:   00000171  A$Accelerometer_Test$1405          Accelerometer_Test
C:   00000172  A$Accelerometer_Test$1406          Accelerometer_Test
C:   00000173  A$Accelerometer_Test$1407          Accelerometer_Test
C:   00000175  A$Accelerometer_Test$1410          Accelerometer_Test
C:   00000175  C$i2c.h$96$2$76                    Accelerometer_Test
C:   00000176  A$Accelerometer_Test$1411          Accelerometer_Test
C:   00000178  A$Accelerometer_Test$1412          Accelerometer_Test
C:   0000017A  A$Accelerometer_Test$1413          Accelerometer_Test
C:   0000017B  A$Accelerometer_Test$1414          Accelerometer_Test
C:   0000017D  A$Accelerometer_Test$1415          Accelerometer_Test
C:   0000017F  A$Accelerometer_Test$1416          Accelerometer_Test
C:   00000180  A$Accelerometer_Test$1417          Accelerometer_Test
C:   00000181  A$Accelerometer_Test$1418          Accelerometer_Test
C:   00000184  A$Accelerometer_Test$1419          Accelerometer_Test
C:   00000185  A$Accelerometer_Test$1420          Accelerometer_Test
C:   00000187  A$Accelerometer_Test$1421          Accelerometer_Test
C:   00000189  A$Accelerometer_Test$1422          Accelerometer_Test
ASxxxx Linker V03.00 + NoICE + sdld,  page 33.
Hexadecimal  [32-Bits]

Area                                    Addr        Size        Decimal Bytes (Attributes)
--------------------------------        ----        ----        ------- ----- ------------
CSEG                                000000CA    00000EA8 =        3752. bytes (REL,CON,CODE)

      Value  Global                              Global Defined In Module
      -----  --------------------------------   ------------------------
C:   0000018A  A$Accelerometer_Test$1423          Accelerometer_Test
C:   0000018C  A$Accelerometer_Test$1424          Accelerometer_Test
C:   0000018E  A$Accelerometer_Test$1425          Accelerometer_Test
C:   00000190  A$Accelerometer_Test$1426          Accelerometer_Test
C:   00000191  A$Accelerometer_Test$1430          Accelerometer_Test
C:   00000191  C$i2c.h$94$1$73                    Accelerometer_Test
C:   00000192  A$Accelerometer_Test$1431          Accelerometer_Test
C:   00000194  A$Accelerometer_Test$1435          Accelerometer_Test
C:   00000194  C$i2c.h$99$1$73                    Accelerometer_Test
C:   00000197  A$Accelerometer_Test$1436          Accelerometer_Test
C:   0000019A  A$Accelerometer_Test$1437          Accelerometer_Test
C:   0000019D  A$Accelerometer_Test$1438          Accelerometer_Test
C:   000001A0  A$Accelerometer_Test$1439          Accelerometer_Test
C:   000001A2  A$Accelerometer_Test$1440          Accelerometer_Test
C:   000001A5  A$Accelerometer_Test$1441          Accelerometer_Test
C:   000001A8  A$Accelerometer_Test$1443          Accelerometer_Test
C:   000001AA  A$Accelerometer_Test$1446          Accelerometer_Test
C:   000001AA  C$i2c.h$100$1$73                   Accelerometer_Test
C:   000001AA  XG$lcd_print$0$0                   Accelerometer_Test
C:   000001AB  A$Accelerometer_Test$1462          Accelerometer_Test
C:   000001AB  C$i2c.h$103$1$73                   Accelerometer_Test
C:   000001AB  C$i2c.h$105$1$73                   Accelerometer_Test
C:   000001AB  G$lcd_clear$0$0                    Accelerometer_Test
C:   000001AB  _lcd_clear                         Accelerometer_Test
C:   000001AE  A$Accelerometer_Test$1466          Accelerometer_Test
C:   000001AE  C$i2c.h$107$1$77                   Accelerometer_Test
C:   000001B0  A$Accelerometer_Test$1467          Accelerometer_Test
C:   000001B2  A$Accelerometer_Test$1468          Accelerometer_Test
C:   000001B4  A$Accelerometer_Test$1469          Accelerometer_Test
C:   000001B7  A$Accelerometer_Test$1470          Accelerometer_Test
C:   000001BA  A$Accelerometer_Test$1471          Accelerometer_Test
C:   000001BD  A$Accelerometer_Test$1472          Accelerometer_Test
C:   000001C0  A$Accelerometer_Test$1473          Accelerometer_Test
C:   000001C3  A$Accelerometer_Test$1474          Accelerometer_Test
C:   000001C6  A$Accelerometer_Test$1475          Accelerometer_Test
C:   000001C9  A$Accelerometer_Test$1476          Accelerometer_Test
C:   000001CB  A$Accelerometer_Test$1480          Accelerometer_Test
C:   000001CB  C$i2c.h$109$1$77                   Accelerometer_Test
C:   000001CE  A$Accelerometer_Test$1483          Accelerometer_Test
C:   000001CE  C$i2c.h$110$1$77                   Accelerometer_Test
C:   000001D1  A$Accelerometer_Test$1484          Accelerometer_Test
C:   000001D4  A$Accelerometer_Test$1485          Accelerometer_Test
C:   000001D7  A$Accelerometer_Test$1486          Accelerometer_Test
C:   000001DA  A$Accelerometer_Test$1487          Accelerometer_Test
C:   000001DD  A$Accelerometer_Test$1488          Accelerometer_Test
C:   000001E0  A$Accelerometer_Test$1489          Accelerometer_Test
C:   000001E3  A$Accelerometer_Test$1492          Accelerometer_Test
C:   000001E3  C$i2c.h$111$1$77                   Accelerometer_Test
C:   000001E3  XG$lcd_clear$0$0                   Accelerometer_Test
C:   000001E4  A$Accelerometer_Test$1508          Accelerometer_Test
C:   000001E4  C$i2c.h$114$1$77                   Accelerometer_Test
ASxxxx Linker V03.00 + NoICE + sdld,  page 34.
Hexadecimal  [32-Bits]

Area                                    Addr        Size        Decimal Bytes (Attributes)
--------------------------------        ----        ----        ------- ----- ------------
CSEG                                000000CA    00000EA8 =        3752. bytes (REL,CON,CODE)

      Value  Global                              Global Defined In Module
      -----  --------------------------------   ------------------------
C:   000001E4  C$i2c.h$118$1$78                   Accelerometer_Test
C:   000001E4  G$read_keypad$0$0                  Accelerometer_Test
C:   000001E4  _read_keypad                       Accelerometer_Test
C:   000001E7  A$Accelerometer_Test$1509          Accelerometer_Test
C:   000001EA  A$Accelerometer_Test$1510          Accelerometer_Test
C:   000001ED  A$Accelerometer_Test$1511          Accelerometer_Test
C:   000001F0  A$Accelerometer_Test$1512          Accelerometer_Test
C:   000001F3  A$Accelerometer_Test$1513          Accelerometer_Test
C:   000001F6  A$Accelerometer_Test$1514          Accelerometer_Test
C:   000001F9  A$Accelerometer_Test$1517          Accelerometer_Test
C:   000001F9  C$i2c.h$119$1$78                   Accelerometer_Test
C:   000001FB  A$Accelerometer_Test$1518          Accelerometer_Test
C:   000001FE  A$Accelerometer_Test$1519          Accelerometer_Test
C:   00000201  A$Accelerometer_Test$1520          Accelerometer_Test
C:   00000203  A$Accelerometer_Test$1524          Accelerometer_Test
C:   00000205  A$Accelerometer_Test$1525          Accelerometer_Test
C:   00000207  A$Accelerometer_Test$1529          Accelerometer_Test
C:   00000207  C$i2c.h$123$2$79                   Accelerometer_Test
C:   00000209  A$Accelerometer_Test$1530          Accelerometer_Test
C:   0000020B  A$Accelerometer_Test$1531          Accelerometer_Test
C:   0000020D  A$Accelerometer_Test$1532          Accelerometer_Test
C:   0000020F  A$Accelerometer_Test$1533          Accelerometer_Test
C:   00000211  A$Accelerometer_Test$1535          Accelerometer_Test
C:   00000212  A$Accelerometer_Test$1536          Accelerometer_Test
C:   00000213  A$Accelerometer_Test$1537          Accelerometer_Test
C:   00000214  A$Accelerometer_Test$1538          Accelerometer_Test
C:   00000215  A$Accelerometer_Test$1539          Accelerometer_Test
C:   00000216  A$Accelerometer_Test$1540          Accelerometer_Test
C:   00000217  A$Accelerometer_Test$1542          Accelerometer_Test
C:   0000021A  A$Accelerometer_Test$1543          Accelerometer_Test
C:   0000021C  A$Accelerometer_Test$1544          Accelerometer_Test
C:   0000021E  A$Accelerometer_Test$1545          Accelerometer_Test
C:   0000021F  A$Accelerometer_Test$1546          Accelerometer_Test
C:   00000221  A$Accelerometer_Test$1547          Accelerometer_Test
C:   00000222  A$Accelerometer_Test$1548          Accelerometer_Test
C:   00000224  A$Accelerometer_Test$1549          Accelerometer_Test
C:   00000225  A$Accelerometer_Test$1550          Accelerometer_Test
C:   00000226  A$Accelerometer_Test$1551          Accelerometer_Test
C:   00000228  A$Accelerometer_Test$1554          Accelerometer_Test
C:   00000228  C$i2c.h$124$2$79                   Accelerometer_Test
C:   0000022A  A$Accelerometer_Test$1555          Accelerometer_Test
C:   0000022B  A$Accelerometer_Test$1556          Accelerometer_Test
C:   0000022D  A$Accelerometer_Test$1557          Accelerometer_Test
C:   0000022F  A$Accelerometer_Test$1561          Accelerometer_Test
C:   0000022F  C$i2c.h$121$1$78                   Accelerometer_Test
C:   00000230  A$Accelerometer_Test$1562          Accelerometer_Test
C:   00000232  A$Accelerometer_Test$1563          Accelerometer_Test
C:   00000235  A$Accelerometer_Test$1565          Accelerometer_Test
C:   00000237  A$Accelerometer_Test$1568          Accelerometer_Test
C:   00000237  C$i2c.h$127$1$78                   Accelerometer_Test
C:   00000239  A$Accelerometer_Test$1569          Accelerometer_Test
ASxxxx Linker V03.00 + NoICE + sdld,  page 35.
Hexadecimal  [32-Bits]

Area                                    Addr        Size        Decimal Bytes (Attributes)
--------------------------------        ----        ----        ------- ----- ------------
CSEG                                000000CA    00000EA8 =        3752. bytes (REL,CON,CODE)

      Value  Global                              Global Defined In Module
      -----  --------------------------------   ------------------------
C:   0000023C  A$Accelerometer_Test$1570          Accelerometer_Test
C:   0000023F  A$Accelerometer_Test$1571          Accelerometer_Test
C:   00000241  A$Accelerometer_Test$1575          Accelerometer_Test
C:   00000241  C$i2c.h$129$1$78                   Accelerometer_Test
C:   00000243  A$Accelerometer_Test$1576          Accelerometer_Test
C:   00000246  A$Accelerometer_Test$1577          Accelerometer_Test
C:   00000249  A$Accelerometer_Test$1578          Accelerometer_Test
C:   0000024B  A$Accelerometer_Test$1582          Accelerometer_Test
C:   0000024B  C$i2c.h$131$1$78                   Accelerometer_Test
C:   0000024D  A$Accelerometer_Test$1583          Accelerometer_Test
C:   00000250  A$Accelerometer_Test$1584          Accelerometer_Test
C:   00000253  A$Accelerometer_Test$1585          Accelerometer_Test
C:   00000255  A$Accelerometer_Test$1589          Accelerometer_Test
C:   00000255  C$i2c.h$133$1$78                   Accelerometer_Test
C:   00000257  A$Accelerometer_Test$1590          Accelerometer_Test
C:   0000025A  A$Accelerometer_Test$1591          Accelerometer_Test
C:   0000025D  A$Accelerometer_Test$1592          Accelerometer_Test
C:   0000025F  A$Accelerometer_Test$1596          Accelerometer_Test
C:   0000025F  C$i2c.h$135$1$78                   Accelerometer_Test
C:   00000262  A$Accelerometer_Test$1600          Accelerometer_Test
C:   00000262  C$i2c.h$136$1$78                   Accelerometer_Test
C:   00000262  XG$read_keypad$0$0                 Accelerometer_Test
C:   00000263  A$Accelerometer_Test$1616          Accelerometer_Test
C:   00000263  C$i2c.h$148$1$78                   Accelerometer_Test
C:   00000263  G$kpd_input$0$0                    Accelerometer_Test
C:   00000263  _kpd_input                         Accelerometer_Test
C:   00000265  A$Accelerometer_Test$1621          Accelerometer_Test
C:   00000265  C$i2c.h$153$1$81                   Accelerometer_Test
C:   00000265  C$i2c.h$156$1$81                   Accelerometer_Test
C:   00000266  A$Accelerometer_Test$1622          Accelerometer_Test
C:   00000267  A$Accelerometer_Test$1623          Accelerometer_Test
C:   00000268  A$Accelerometer_Test$1624          Accelerometer_Test
C:   00000269  A$Accelerometer_Test$1625          Accelerometer_Test
C:   0000026B  A$Accelerometer_Test$1626          Accelerometer_Test
C:   0000026D  A$Accelerometer_Test$1627          Accelerometer_Test
C:   0000026F  A$Accelerometer_Test$1628          Accelerometer_Test
C:   00000271  A$Accelerometer_Test$1629          Accelerometer_Test
C:   00000273  A$Accelerometer_Test$1630          Accelerometer_Test
C:   00000275  A$Accelerometer_Test$1631          Accelerometer_Test
C:   00000277  A$Accelerometer_Test$1632          Accelerometer_Test
C:   00000279  A$Accelerometer_Test$1633          Accelerometer_Test
C:   0000027B  A$Accelerometer_Test$1634          Accelerometer_Test
C:   0000027E  A$Accelerometer_Test$1635          Accelerometer_Test
C:   00000280  A$Accelerometer_Test$1636          Accelerometer_Test
C:   00000282  A$Accelerometer_Test$1637          Accelerometer_Test
C:   00000284  A$Accelerometer_Test$1638          Accelerometer_Test
C:   00000286  A$Accelerometer_Test$1639          Accelerometer_Test
C:   00000288  A$Accelerometer_Test$1643          Accelerometer_Test
C:   00000288  C$i2c.h$158$1$81                   Accelerometer_Test
C:   0000028A  A$Accelerometer_Test$1644          Accelerometer_Test
C:   0000028C  A$Accelerometer_Test$1645          Accelerometer_Test
ASxxxx Linker V03.00 + NoICE + sdld,  page 36.
Hexadecimal  [32-Bits]

Area                                    Addr        Size        Decimal Bytes (Attributes)
--------------------------------        ----        ----        ------- ----- ------------
CSEG                                000000CA    00000EA8 =        3752. bytes (REL,CON,CODE)

      Value  Global                              Global Defined In Module
      -----  --------------------------------   ------------------------
C:   0000028E  A$Accelerometer_Test$1646          Accelerometer_Test
C:   00000290  A$Accelerometer_Test$1647          Accelerometer_Test
C:   00000291  A$Accelerometer_Test$1648          Accelerometer_Test
C:   00000293  A$Accelerometer_Test$1649          Accelerometer_Test
C:   00000295  A$Accelerometer_Test$1650          Accelerometer_Test
C:   00000297  A$Accelerometer_Test$1651          Accelerometer_Test
C:   00000298  A$Accelerometer_Test$1652          Accelerometer_Test
C:   0000029A  A$Accelerometer_Test$1653          Accelerometer_Test
C:   0000029C  A$Accelerometer_Test$1654          Accelerometer_Test
C:   0000029E  A$Accelerometer_Test$1655          Accelerometer_Test
C:   0000029F  A$Accelerometer_Test$1656          Accelerometer_Test
C:   000002A1  A$Accelerometer_Test$1657          Accelerometer_Test
C:   000002A3  A$Accelerometer_Test$1658          Accelerometer_Test
C:   000002A5  A$Accelerometer_Test$1659          Accelerometer_Test
C:   000002A6  A$Accelerometer_Test$1660          Accelerometer_Test
C:   000002A8  A$Accelerometer_Test$1661          Accelerometer_Test
C:   000002AA  A$Accelerometer_Test$1662          Accelerometer_Test
C:   000002AC  A$Accelerometer_Test$1663          Accelerometer_Test
C:   000002AD  A$Accelerometer_Test$1664          Accelerometer_Test
C:   000002AF  A$Accelerometer_Test$1665          Accelerometer_Test
C:   000002B1  A$Accelerometer_Test$1666          Accelerometer_Test
C:   000002B3  A$Accelerometer_Test$1667          Accelerometer_Test
C:   000002B5  A$Accelerometer_Test$1668          Accelerometer_Test
C:   000002B7  A$Accelerometer_Test$1669          Accelerometer_Test
C:   000002B9  A$Accelerometer_Test$1670          Accelerometer_Test
C:   000002BB  A$Accelerometer_Test$1671          Accelerometer_Test
C:   000002BE  A$Accelerometer_Test$1672          Accelerometer_Test
C:   000002C0  A$Accelerometer_Test$1673          Accelerometer_Test
C:   000002C2  A$Accelerometer_Test$1674          Accelerometer_Test
C:   000002C4  A$Accelerometer_Test$1677          Accelerometer_Test
C:   000002C4  C$i2c.h$160$1$81                   Accelerometer_Test
C:   000002C7  A$Accelerometer_Test$1678          Accelerometer_Test
C:   000002CA  A$Accelerometer_Test$1679          Accelerometer_Test
C:   000002CB  A$Accelerometer_Test$1680          Accelerometer_Test
C:   000002CE  A$Accelerometer_Test$1681          Accelerometer_Test
C:   000002D0  A$Accelerometer_Test$1682          Accelerometer_Test
C:   000002D2  A$Accelerometer_Test$1685          Accelerometer_Test
C:   000002D4  A$Accelerometer_Test$1689          Accelerometer_Test
C:   000002D4  C$i2c.h$166$3$84                   Accelerometer_Test
C:   000002D6  A$Accelerometer_Test$1690          Accelerometer_Test
C:   000002D8  A$Accelerometer_Test$1691          Accelerometer_Test
C:   000002DA  A$Accelerometer_Test$1692          Accelerometer_Test
C:   000002DD  A$Accelerometer_Test$1693          Accelerometer_Test
C:   000002DF  A$Accelerometer_Test$1694          Accelerometer_Test
C:   000002E1  A$Accelerometer_Test$1695          Accelerometer_Test
C:   000002E3  A$Accelerometer_Test$1696          Accelerometer_Test
C:   000002E5  A$Accelerometer_Test$1697          Accelerometer_Test
C:   000002E7  A$Accelerometer_Test$1698          Accelerometer_Test
C:   000002EA  A$Accelerometer_Test$1699          Accelerometer_Test
C:   000002EC  A$Accelerometer_Test$1701          Accelerometer_Test
C:   000002EF  A$Accelerometer_Test$1703          Accelerometer_Test
ASxxxx Linker V03.00 + NoICE + sdld,  page 37.
Hexadecimal  [32-Bits]

Area                                    Addr        Size        Decimal Bytes (Attributes)
--------------------------------        ----        ----        ------- ----- ------------
CSEG                                000000CA    00000EA8 =        3752. bytes (REL,CON,CODE)

      Value  Global                              Global Defined In Module
      -----  --------------------------------   ------------------------
C:   000002F2  A$Accelerometer_Test$1704          Accelerometer_Test
C:   000002F3  A$Accelerometer_Test$1705          Accelerometer_Test
C:   000002F5  A$Accelerometer_Test$1706          Accelerometer_Test
C:   000002F7  A$Accelerometer_Test$1707          Accelerometer_Test
C:   000002F9  A$Accelerometer_Test$1708          Accelerometer_Test
C:   000002FB  A$Accelerometer_Test$1709          Accelerometer_Test
C:   000002FE  A$Accelerometer_Test$1710          Accelerometer_Test
C:   00000300  A$Accelerometer_Test$1711          Accelerometer_Test
C:   00000302  A$Accelerometer_Test$1712          Accelerometer_Test
C:   00000304  A$Accelerometer_Test$1713          Accelerometer_Test
C:   00000306  A$Accelerometer_Test$1717          Accelerometer_Test
C:   00000306  C$i2c.h$167$2$82                   Accelerometer_Test
C:   00000309  A$Accelerometer_Test$1721          Accelerometer_Test
C:   00000309  C$i2c.h$169$3$83                   Accelerometer_Test
C:   0000030B  A$Accelerometer_Test$1722          Accelerometer_Test
C:   0000030D  A$Accelerometer_Test$1723          Accelerometer_Test
C:   00000310  A$Accelerometer_Test$1724          Accelerometer_Test
C:   00000312  A$Accelerometer_Test$1725          Accelerometer_Test
C:   00000314  A$Accelerometer_Test$1726          Accelerometer_Test
C:   00000316  A$Accelerometer_Test$1727          Accelerometer_Test
C:   00000319  A$Accelerometer_Test$1728          Accelerometer_Test
C:   0000031C  A$Accelerometer_Test$1729          Accelerometer_Test
C:   0000031D  A$Accelerometer_Test$1730          Accelerometer_Test
C:   0000031F  A$Accelerometer_Test$1731          Accelerometer_Test
C:   00000321  A$Accelerometer_Test$1732          Accelerometer_Test
C:   00000323  A$Accelerometer_Test$1733          Accelerometer_Test
C:   00000326  A$Accelerometer_Test$1734          Accelerometer_Test
C:   00000328  A$Accelerometer_Test$1735          Accelerometer_Test
C:   0000032A  A$Accelerometer_Test$1736          Accelerometer_Test
C:   0000032C  A$Accelerometer_Test$1740          Accelerometer_Test
C:   0000032C  C$i2c.h$170$3$83                   Accelerometer_Test
C:   0000032E  A$Accelerometer_Test$1741          Accelerometer_Test
C:   00000330  A$Accelerometer_Test$1742          Accelerometer_Test
C:   00000333  A$Accelerometer_Test$1746          Accelerometer_Test
C:   00000333  C$i2c.h$174$3$84                   Accelerometer_Test
C:   00000334  A$Accelerometer_Test$1747          Accelerometer_Test
C:   00000335  A$Accelerometer_Test$1748          Accelerometer_Test
C:   00000336  A$Accelerometer_Test$1749          Accelerometer_Test
C:   00000338  A$Accelerometer_Test$1750          Accelerometer_Test
C:   00000339  A$Accelerometer_Test$1751          Accelerometer_Test
C:   0000033B  A$Accelerometer_Test$1752          Accelerometer_Test
C:   0000033D  A$Accelerometer_Test$1753          Accelerometer_Test
C:   0000033F  A$Accelerometer_Test$1754          Accelerometer_Test
C:   00000341  A$Accelerometer_Test$1755          Accelerometer_Test
C:   00000343  A$Accelerometer_Test$1756          Accelerometer_Test
C:   00000345  A$Accelerometer_Test$1757          Accelerometer_Test
C:   00000347  A$Accelerometer_Test$1758          Accelerometer_Test
C:   00000349  A$Accelerometer_Test$1759          Accelerometer_Test
C:   0000034B  A$Accelerometer_Test$1760          Accelerometer_Test
C:   0000034D  A$Accelerometer_Test$1761          Accelerometer_Test
C:   0000034F  A$Accelerometer_Test$1762          Accelerometer_Test
ASxxxx Linker V03.00 + NoICE + sdld,  page 38.
Hexadecimal  [32-Bits]

Area                                    Addr        Size        Decimal Bytes (Attributes)
--------------------------------        ----        ----        ------- ----- ------------
CSEG                                000000CA    00000EA8 =        3752. bytes (REL,CON,CODE)

      Value  Global                              Global Defined In Module
      -----  --------------------------------   ------------------------
C:   00000351  A$Accelerometer_Test$1763          Accelerometer_Test
C:   00000353  A$Accelerometer_Test$1764          Accelerometer_Test
C:   00000355  A$Accelerometer_Test$1765          Accelerometer_Test
C:   00000358  A$Accelerometer_Test$1766          Accelerometer_Test
C:   0000035A  A$Accelerometer_Test$1767          Accelerometer_Test
C:   0000035C  A$Accelerometer_Test$1768          Accelerometer_Test
C:   0000035E  A$Accelerometer_Test$1769          Accelerometer_Test
C:   00000360  A$Accelerometer_Test$1770          Accelerometer_Test
C:   00000362  A$Accelerometer_Test$1771          Accelerometer_Test
C:   00000364  A$Accelerometer_Test$1772          Accelerometer_Test
C:   00000366  A$Accelerometer_Test$1773          Accelerometer_Test
C:   00000368  A$Accelerometer_Test$1776          Accelerometer_Test
C:   00000368  C$i2c.h$175$1$81                   Accelerometer_Test
C:   0000036A  A$Accelerometer_Test$1777          Accelerometer_Test
C:   0000036C  A$Accelerometer_Test$1778          Accelerometer_Test
C:   0000036F  A$Accelerometer_Test$1779          Accelerometer_Test
C:   00000371  A$Accelerometer_Test$1780          Accelerometer_Test
C:   00000373  A$Accelerometer_Test$1781          Accelerometer_Test
C:   00000375  A$Accelerometer_Test$1782          Accelerometer_Test
C:   00000378  A$Accelerometer_Test$1783          Accelerometer_Test
C:   0000037A  A$Accelerometer_Test$1784          Accelerometer_Test
C:   0000037C  A$Accelerometer_Test$1785          Accelerometer_Test
C:   0000037E  A$Accelerometer_Test$1786          Accelerometer_Test
C:   00000380  A$Accelerometer_Test$1787          Accelerometer_Test
C:   00000382  A$Accelerometer_Test$1788          Accelerometer_Test
C:   00000384  A$Accelerometer_Test$1789          Accelerometer_Test
C:   00000385  A$Accelerometer_Test$1790          Accelerometer_Test
C:   00000386  A$Accelerometer_Test$1791          Accelerometer_Test
C:   00000387  A$Accelerometer_Test$1792          Accelerometer_Test
C:   00000388  A$Accelerometer_Test$1793          Accelerometer_Test
C:   00000389  A$Accelerometer_Test$1794          Accelerometer_Test
C:   0000038A  A$Accelerometer_Test$1795          Accelerometer_Test
C:   0000038B  A$Accelerometer_Test$1796          Accelerometer_Test
C:   0000038D  A$Accelerometer_Test$1797          Accelerometer_Test
C:   0000038E  A$Accelerometer_Test$1798          Accelerometer_Test
C:   0000038F  A$Accelerometer_Test$1799          Accelerometer_Test
C:   00000391  A$Accelerometer_Test$1800          Accelerometer_Test
C:   00000392  A$Accelerometer_Test$1804          Accelerometer_Test
C:   00000392  C$i2c.h$176$3$84                   Accelerometer_Test
C:   00000394  A$Accelerometer_Test$1805          Accelerometer_Test
C:   00000396  A$Accelerometer_Test$1806          Accelerometer_Test
C:   00000398  A$Accelerometer_Test$1807          Accelerometer_Test
C:   0000039A  A$Accelerometer_Test$1808          Accelerometer_Test
C:   0000039D  A$Accelerometer_Test$1809          Accelerometer_Test
C:   0000039F  A$Accelerometer_Test$1810          Accelerometer_Test
C:   000003A1  A$Accelerometer_Test$1811          Accelerometer_Test
C:   000003A3  A$Accelerometer_Test$1812          Accelerometer_Test
C:   000003A5  A$Accelerometer_Test$1813          Accelerometer_Test
C:   000003A7  A$Accelerometer_Test$1814          Accelerometer_Test
C:   000003A8  A$Accelerometer_Test$1815          Accelerometer_Test
C:   000003AB  A$Accelerometer_Test$1816          Accelerometer_Test
ASxxxx Linker V03.00 + NoICE + sdld,  page 39.
Hexadecimal  [32-Bits]

Area                                    Addr        Size        Decimal Bytes (Attributes)
--------------------------------        ----        ----        ------- ----- ------------
CSEG                                000000CA    00000EA8 =        3752. bytes (REL,CON,CODE)

      Value  Global                              Global Defined In Module
      -----  --------------------------------   ------------------------
C:   000003AE  A$Accelerometer_Test$1817          Accelerometer_Test
C:   000003AF  A$Accelerometer_Test$1818          Accelerometer_Test
C:   000003B1  A$Accelerometer_Test$1819          Accelerometer_Test
C:   000003B3  A$Accelerometer_Test$1820          Accelerometer_Test
C:   000003B5  A$Accelerometer_Test$1821          Accelerometer_Test
C:   000003B7  A$Accelerometer_Test$1822          Accelerometer_Test
C:   000003B9  A$Accelerometer_Test$1823          Accelerometer_Test
C:   000003BC  A$Accelerometer_Test$1824          Accelerometer_Test
C:   000003BE  A$Accelerometer_Test$1825          Accelerometer_Test
C:   000003C0  A$Accelerometer_Test$1826          Accelerometer_Test
C:   000003C2  A$Accelerometer_Test$1827          Accelerometer_Test
C:   000003C4  A$Accelerometer_Test$1828          Accelerometer_Test
C:   000003C6  A$Accelerometer_Test$1832          Accelerometer_Test
C:   000003C6  C$i2c.h$164$1$81                   Accelerometer_Test
C:   000003C7  A$Accelerometer_Test$1833          Accelerometer_Test
C:   000003C8  A$Accelerometer_Test$1834          Accelerometer_Test
C:   000003C9  A$Accelerometer_Test$1835          Accelerometer_Test
C:   000003CB  A$Accelerometer_Test$1836          Accelerometer_Test
C:   000003CD  A$Accelerometer_Test$1837          Accelerometer_Test
C:   000003CF  A$Accelerometer_Test$1838          Accelerometer_Test
C:   000003D2  A$Accelerometer_Test$1842          Accelerometer_Test
C:   000003D2  C$i2c.h$179$1$81                   Accelerometer_Test
C:   000003D4  A$Accelerometer_Test$1843          Accelerometer_Test
C:   000003D6  A$Accelerometer_Test$1847          Accelerometer_Test
C:   000003D6  C$i2c.h$180$1$81                   Accelerometer_Test
C:   000003D6  XG$kpd_input$0$0                   Accelerometer_Test
C:   000003D7  A$Accelerometer_Test$1861          Accelerometer_Test
C:   000003D7  C$i2c.h$189$1$81                   Accelerometer_Test
C:   000003D7  G$delay_time$0$0                   Accelerometer_Test
C:   000003D7  _delay_time                        Accelerometer_Test
C:   000003D9  A$Accelerometer_Test$1862          Accelerometer_Test
C:   000003DB  A$Accelerometer_Test$1863          Accelerometer_Test
C:   000003DD  A$Accelerometer_Test$1864          Accelerometer_Test
C:   000003DE  A$Accelerometer_Test$1867          Accelerometer_Test
C:   000003DE  C$i2c.h$192$1$86                   Accelerometer_Test
C:   000003E0  A$Accelerometer_Test$1868          Accelerometer_Test
C:   000003E2  A$Accelerometer_Test$1869          Accelerometer_Test
C:   000003E4  A$Accelerometer_Test$1870          Accelerometer_Test
C:   000003E6  A$Accelerometer_Test$1872          Accelerometer_Test
C:   000003E7  A$Accelerometer_Test$1873          Accelerometer_Test
C:   000003E8  A$Accelerometer_Test$1874          Accelerometer_Test
C:   000003E9  A$Accelerometer_Test$1875          Accelerometer_Test
C:   000003EA  A$Accelerometer_Test$1876          Accelerometer_Test
C:   000003EB  A$Accelerometer_Test$1877          Accelerometer_Test
C:   000003EC  A$Accelerometer_Test$1878          Accelerometer_Test
C:   000003ED  A$Accelerometer_Test$1879          Accelerometer_Test
C:   000003EE  A$Accelerometer_Test$1880          Accelerometer_Test
C:   000003EF  A$Accelerometer_Test$1881          Accelerometer_Test
C:   000003F1  A$Accelerometer_Test$1882          Accelerometer_Test
C:   000003F2  A$Accelerometer_Test$1883          Accelerometer_Test
C:   000003F5  A$Accelerometer_Test$1884          Accelerometer_Test
ASxxxx Linker V03.00 + NoICE + sdld,  page 40.
Hexadecimal  [32-Bits]

Area                                    Addr        Size        Decimal Bytes (Attributes)
--------------------------------        ----        ----        ------- ----- ------------
CSEG                                000000CA    00000EA8 =        3752. bytes (REL,CON,CODE)

      Value  Global                              Global Defined In Module
      -----  --------------------------------   ------------------------
C:   000003F6  A$Accelerometer_Test$1885          Accelerometer_Test
C:   000003F9  A$Accelerometer_Test$1886          Accelerometer_Test
C:   000003FA  A$Accelerometer_Test$1887          Accelerometer_Test
C:   000003FD  A$Accelerometer_Test$1888          Accelerometer_Test
C:   000003FE  A$Accelerometer_Test$1890          Accelerometer_Test
C:   00000400  A$Accelerometer_Test$1894          Accelerometer_Test
C:   00000400  C$i2c.h$193$1$86                   Accelerometer_Test
C:   00000400  XG$delay_time$0$0                  Accelerometer_Test
C:   00000401  A$Accelerometer_Test$1908          Accelerometer_Test
C:   00000401  C$i2c.h$196$1$86                   Accelerometer_Test
C:   00000401  C$i2c.h$198$1$88                   Accelerometer_Test
C:   00000401  G$i2c_start$0$0                    Accelerometer_Test
C:   00000401  _i2c_start                         Accelerometer_Test
C:   00000404  A$Accelerometer_Test$1911          Accelerometer_Test
C:   00000404  C$i2c.h$199$1$88                   Accelerometer_Test
C:   00000406  A$Accelerometer_Test$1915          Accelerometer_Test
C:   00000406  C$i2c.h$200$1$88                   Accelerometer_Test
C:   00000409  A$Accelerometer_Test$1918          Accelerometer_Test
C:   00000409  C$i2c.h$201$1$88                   Accelerometer_Test
C:   0000040B  A$Accelerometer_Test$1921          Accelerometer_Test
C:   0000040B  C$i2c.h$202$1$88                   Accelerometer_Test
C:   0000040D  A$Accelerometer_Test$1924          Accelerometer_Test
C:   0000040D  C$i2c.h$203$1$88                   Accelerometer_Test
C:   0000040D  XG$i2c_start$0$0                   Accelerometer_Test
C:   0000040E  A$Accelerometer_Test$1937          Accelerometer_Test
C:   0000040E  C$i2c.h$206$1$88                   Accelerometer_Test
C:   0000040E  G$i2c_write$0$0                    Accelerometer_Test
C:   0000040E  _i2c_write                         Accelerometer_Test
C:   00000411  A$Accelerometer_Test$1943          Accelerometer_Test
C:   00000411  C$i2c.h$209$1$90                   Accelerometer_Test
C:   00000411  C$i2c.h$210$1$90                   Accelerometer_Test
C:   00000414  A$Accelerometer_Test$1944          Accelerometer_Test
C:   00000416  A$Accelerometer_Test$1948          Accelerometer_Test
C:   00000416  C$i2c.h$211$1$90                   Accelerometer_Test
C:   00000416  XG$i2c_write$0$0                   Accelerometer_Test
C:   00000417  A$Accelerometer_Test$1961          Accelerometer_Test
C:   00000417  C$i2c.h$214$1$90                   Accelerometer_Test
C:   00000417  G$i2c_write_and_stop$0$0           Accelerometer_Test
C:   00000417  _i2c_write_and_stop                Accelerometer_Test
C:   0000041A  A$Accelerometer_Test$1964          Accelerometer_Test
C:   0000041A  C$i2c.h$217$1$92                   Accelerometer_Test
C:   0000041C  A$Accelerometer_Test$1970          Accelerometer_Test
C:   0000041C  C$i2c.h$218$1$92                   Accelerometer_Test
C:   0000041C  C$i2c.h$219$1$92                   Accelerometer_Test
C:   0000041F  A$Accelerometer_Test$1971          Accelerometer_Test
C:   00000421  A$Accelerometer_Test$1975          Accelerometer_Test
C:   00000421  C$i2c.h$220$1$92                   Accelerometer_Test
C:   00000421  XG$i2c_write_and_stop$0$0          Accelerometer_Test
C:   00000422  A$Accelerometer_Test$1991          Accelerometer_Test
C:   00000422  C$i2c.h$223$1$92                   Accelerometer_Test
C:   00000422  C$i2c.h$226$1$94                   Accelerometer_Test
ASxxxx Linker V03.00 + NoICE + sdld,  page 41.
Hexadecimal  [32-Bits]

Area                                    Addr        Size        Decimal Bytes (Attributes)
--------------------------------        ----        ----        ------- ----- ------------
CSEG                                000000CA    00000EA8 =        3752. bytes (REL,CON,CODE)

      Value  Global                              Global Defined In Module
      -----  --------------------------------   ------------------------
C:   00000422  G$i2c_read$0$0                     Accelerometer_Test
C:   00000422  _i2c_read                          Accelerometer_Test
C:   00000425  A$Accelerometer_Test$1994          Accelerometer_Test
C:   00000425  C$i2c.h$227$1$94                   Accelerometer_Test
C:   00000428  A$Accelerometer_Test$1997          Accelerometer_Test
C:   00000428  C$i2c.h$228$1$94                   Accelerometer_Test
C:   0000042A  A$Accelerometer_Test$2002          Accelerometer_Test
C:   0000042A  C$i2c.h$229$1$94                   Accelerometer_Test
C:   0000042A  C$i2c.h$230$1$94                   Accelerometer_Test
C:   0000042A  XG$i2c_read$0$0                    Accelerometer_Test
C:   0000042B  A$Accelerometer_Test$2018          Accelerometer_Test
C:   0000042B  C$i2c.h$233$1$94                   Accelerometer_Test
C:   0000042B  C$i2c.h$236$1$96                   Accelerometer_Test
C:   0000042B  G$i2c_read_and_stop$0$0            Accelerometer_Test
C:   0000042B  _i2c_read_and_stop                 Accelerometer_Test
C:   0000042E  A$Accelerometer_Test$2021          Accelerometer_Test
C:   0000042E  C$i2c.h$237$1$96                   Accelerometer_Test
C:   00000430  A$Accelerometer_Test$2024          Accelerometer_Test
C:   00000430  C$i2c.h$238$1$96                   Accelerometer_Test
C:   00000432  A$Accelerometer_Test$2027          Accelerometer_Test
C:   00000432  C$i2c.h$239$1$96                   Accelerometer_Test
C:   00000434  A$Accelerometer_Test$2033          Accelerometer_Test
C:   00000434  C$i2c.h$240$1$96                   Accelerometer_Test
C:   00000434  C$i2c.h$241$1$96                   Accelerometer_Test
C:   00000437  A$Accelerometer_Test$2034          Accelerometer_Test
C:   00000439  A$Accelerometer_Test$2038          Accelerometer_Test
C:   00000439  C$i2c.h$242$1$96                   Accelerometer_Test
C:   0000043B  A$Accelerometer_Test$2041          Accelerometer_Test
C:   0000043B  C$i2c.h$243$1$96                   Accelerometer_Test
C:   0000043B  XG$i2c_read_and_stop$0$0           Accelerometer_Test
C:   0000043C  A$Accelerometer_Test$2058          Accelerometer_Test
C:   0000043C  C$i2c.h$246$1$96                   Accelerometer_Test
C:   0000043C  G$i2c_write_data$0$0               Accelerometer_Test
C:   0000043C  _i2c_write_data                    Accelerometer_Test
C:   0000043E  A$Accelerometer_Test$2061          Accelerometer_Test
C:   0000043E  C$i2c.h$250$1$98                   Accelerometer_Test
C:   00000440  A$Accelerometer_Test$2062          Accelerometer_Test
C:   00000443  A$Accelerometer_Test$2063          Accelerometer_Test
C:   00000445  A$Accelerometer_Test$2066          Accelerometer_Test
C:   00000445  C$i2c.h$251$1$98                   Accelerometer_Test
C:   00000447  A$Accelerometer_Test$2067          Accelerometer_Test
C:   00000448  A$Accelerometer_Test$2068          Accelerometer_Test
C:   0000044A  A$Accelerometer_Test$2069          Accelerometer_Test
C:   0000044D  A$Accelerometer_Test$2072          Accelerometer_Test
C:   0000044D  C$i2c.h$252$1$98                   Accelerometer_Test
C:   00000450  A$Accelerometer_Test$2073          Accelerometer_Test
C:   00000453  A$Accelerometer_Test$2076          Accelerometer_Test
C:   00000455  A$Accelerometer_Test$2078          Accelerometer_Test
C:   00000457  A$Accelerometer_Test$2079          Accelerometer_Test
C:   00000459  A$Accelerometer_Test$2080          Accelerometer_Test
C:   0000045A  A$Accelerometer_Test$2081          Accelerometer_Test
ASxxxx Linker V03.00 + NoICE + sdld,  page 42.
Hexadecimal  [32-Bits]

Area                                    Addr        Size        Decimal Bytes (Attributes)
--------------------------------        ----        ----        ------- ----- ------------
CSEG                                000000CA    00000EA8 =        3752. bytes (REL,CON,CODE)

      Value  Global                              Global Defined In Module
      -----  --------------------------------   ------------------------
C:   0000045D  A$Accelerometer_Test$2082          Accelerometer_Test
C:   0000045E  A$Accelerometer_Test$2084          Accelerometer_Test
C:   00000460  A$Accelerometer_Test$2085          Accelerometer_Test
C:   00000462  A$Accelerometer_Test$2086          Accelerometer_Test
C:   00000463  A$Accelerometer_Test$2087          Accelerometer_Test
C:   00000464  A$Accelerometer_Test$2088          Accelerometer_Test
C:   00000465  A$Accelerometer_Test$2089          Accelerometer_Test
C:   00000466  A$Accelerometer_Test$2090          Accelerometer_Test
C:   00000468  A$Accelerometer_Test$2091          Accelerometer_Test
C:   0000046A  A$Accelerometer_Test$2092          Accelerometer_Test
C:   0000046D  A$Accelerometer_Test$2093          Accelerometer_Test
C:   0000046F  A$Accelerometer_Test$2094          Accelerometer_Test
C:   00000471  A$Accelerometer_Test$2097          Accelerometer_Test
C:   00000471  C$i2c.h$254$1$98                   Accelerometer_Test
C:   00000472  A$Accelerometer_Test$2098          Accelerometer_Test
C:   00000474  A$Accelerometer_Test$2099          Accelerometer_Test
C:   00000475  A$Accelerometer_Test$2100          Accelerometer_Test
C:   00000476  A$Accelerometer_Test$2101          Accelerometer_Test
C:   00000478  A$Accelerometer_Test$2102          Accelerometer_Test
C:   00000479  A$Accelerometer_Test$2103          Accelerometer_Test
C:   0000047B  A$Accelerometer_Test$2104          Accelerometer_Test
C:   0000047D  A$Accelerometer_Test$2105          Accelerometer_Test
C:   0000047F  A$Accelerometer_Test$2106          Accelerometer_Test
C:   00000481  A$Accelerometer_Test$2107          Accelerometer_Test
C:   00000484  A$Accelerometer_Test$2108          Accelerometer_Test
C:   00000486  A$Accelerometer_Test$2109          Accelerometer_Test
C:   00000488  A$Accelerometer_Test$2110          Accelerometer_Test
C:   0000048B  A$Accelerometer_Test$2111          Accelerometer_Test
C:   0000048D  A$Accelerometer_Test$2114          Accelerometer_Test
C:   0000048D  C$i2c.h$253$1$98                   Accelerometer_Test
C:   0000048E  A$Accelerometer_Test$2115          Accelerometer_Test
C:   00000490  A$Accelerometer_Test$2119          Accelerometer_Test
C:   00000490  C$i2c.h$255$1$98                   Accelerometer_Test
C:   00000492  A$Accelerometer_Test$2120          Accelerometer_Test
C:   00000494  A$Accelerometer_Test$2121          Accelerometer_Test
C:   00000495  A$Accelerometer_Test$2122          Accelerometer_Test
C:   00000498  A$Accelerometer_Test$2123          Accelerometer_Test
C:   00000499  A$Accelerometer_Test$2125          Accelerometer_Test
C:   0000049A  A$Accelerometer_Test$2126          Accelerometer_Test
C:   0000049C  A$Accelerometer_Test$2127          Accelerometer_Test
C:   0000049D  A$Accelerometer_Test$2128          Accelerometer_Test
C:   0000049E  A$Accelerometer_Test$2129          Accelerometer_Test
C:   000004A0  A$Accelerometer_Test$2130          Accelerometer_Test
C:   000004A1  A$Accelerometer_Test$2131          Accelerometer_Test
C:   000004A3  A$Accelerometer_Test$2132          Accelerometer_Test
C:   000004A5  A$Accelerometer_Test$2133          Accelerometer_Test
C:   000004A7  A$Accelerometer_Test$2134          Accelerometer_Test
C:   000004A9  A$Accelerometer_Test$2135          Accelerometer_Test
C:   000004AC  A$Accelerometer_Test$2136          Accelerometer_Test
C:   000004AE  A$Accelerometer_Test$2137          Accelerometer_Test
C:   000004B1  A$Accelerometer_Test$2140          Accelerometer_Test
ASxxxx Linker V03.00 + NoICE + sdld,  page 43.
Hexadecimal  [32-Bits]

Area                                    Addr        Size        Decimal Bytes (Attributes)
--------------------------------        ----        ----        ------- ----- ------------
CSEG                                000000CA    00000EA8 =        3752. bytes (REL,CON,CODE)

      Value  Global                              Global Defined In Module
      -----  --------------------------------   ------------------------
C:   000004B1  C$i2c.h$256$1$98                   Accelerometer_Test
C:   000004B1  XG$i2c_write_data$0$0              Accelerometer_Test
C:   000004B2  A$Accelerometer_Test$2157          Accelerometer_Test
C:   000004B2  C$i2c.h$259$1$98                   Accelerometer_Test
C:   000004B2  G$i2c_read_data$0$0                Accelerometer_Test
C:   000004B2  _i2c_read_data                     Accelerometer_Test
C:   000004B4  A$Accelerometer_Test$2160          Accelerometer_Test
C:   000004B4  C$i2c.h$262$1$100                  Accelerometer_Test
C:   000004B6  A$Accelerometer_Test$2161          Accelerometer_Test
C:   000004B9  A$Accelerometer_Test$2162          Accelerometer_Test
C:   000004BB  A$Accelerometer_Test$2165          Accelerometer_Test
C:   000004BB  C$i2c.h$263$1$100                  Accelerometer_Test
C:   000004BD  A$Accelerometer_Test$2166          Accelerometer_Test
C:   000004BF  A$Accelerometer_Test$2167          Accelerometer_Test
C:   000004C0  A$Accelerometer_Test$2168          Accelerometer_Test
C:   000004C2  A$Accelerometer_Test$2169          Accelerometer_Test
C:   000004C4  A$Accelerometer_Test$2170          Accelerometer_Test
C:   000004C7  A$Accelerometer_Test$2173          Accelerometer_Test
C:   000004C7  C$i2c.h$264$1$100                  Accelerometer_Test
C:   000004CA  A$Accelerometer_Test$2174          Accelerometer_Test
C:   000004CD  A$Accelerometer_Test$2177          Accelerometer_Test
C:   000004CD  C$i2c.h$265$1$100                  Accelerometer_Test
C:   000004D0  A$Accelerometer_Test$2178          Accelerometer_Test
C:   000004D2  A$Accelerometer_Test$2181          Accelerometer_Test
C:   000004D2  C$i2c.h$266$1$100                  Accelerometer_Test
C:   000004D4  A$Accelerometer_Test$2182          Accelerometer_Test
C:   000004D5  A$Accelerometer_Test$2183          Accelerometer_Test
C:   000004D7  A$Accelerometer_Test$2184          Accelerometer_Test
C:   000004DA  A$Accelerometer_Test$2187          Accelerometer_Test
C:   000004DC  A$Accelerometer_Test$2189          Accelerometer_Test
C:   000004DE  A$Accelerometer_Test$2190          Accelerometer_Test
C:   000004E0  A$Accelerometer_Test$2191          Accelerometer_Test
C:   000004E1  A$Accelerometer_Test$2192          Accelerometer_Test
C:   000004E4  A$Accelerometer_Test$2193          Accelerometer_Test
C:   000004E5  A$Accelerometer_Test$2195          Accelerometer_Test
C:   000004E7  A$Accelerometer_Test$2196          Accelerometer_Test
C:   000004E9  A$Accelerometer_Test$2197          Accelerometer_Test
C:   000004EA  A$Accelerometer_Test$2198          Accelerometer_Test
C:   000004EB  A$Accelerometer_Test$2199          Accelerometer_Test
C:   000004EC  A$Accelerometer_Test$2200          Accelerometer_Test
C:   000004ED  A$Accelerometer_Test$2201          Accelerometer_Test
C:   000004EF  A$Accelerometer_Test$2202          Accelerometer_Test
C:   000004F1  A$Accelerometer_Test$2203          Accelerometer_Test
C:   000004F4  A$Accelerometer_Test$2204          Accelerometer_Test
C:   000004F6  A$Accelerometer_Test$2205          Accelerometer_Test
C:   000004F8  A$Accelerometer_Test$2208          Accelerometer_Test
C:   000004F8  C$i2c.h$269$2$101                  Accelerometer_Test
C:   000004FA  A$Accelerometer_Test$2211          Accelerometer_Test
C:   000004FA  C$i2c.h$270$2$101                  Accelerometer_Test
C:   000004FB  A$Accelerometer_Test$2212          Accelerometer_Test
C:   000004FD  A$Accelerometer_Test$2213          Accelerometer_Test
ASxxxx Linker V03.00 + NoICE + sdld,  page 44.
Hexadecimal  [32-Bits]

Area                                    Addr        Size        Decimal Bytes (Attributes)
--------------------------------        ----        ----        ------- ----- ------------
CSEG                                000000CA    00000EA8 =        3752. bytes (REL,CON,CODE)

      Value  Global                              Global Defined In Module
      -----  --------------------------------   ------------------------
C:   000004FE  A$Accelerometer_Test$2214          Accelerometer_Test
C:   000004FF  A$Accelerometer_Test$2215          Accelerometer_Test
C:   00000501  A$Accelerometer_Test$2216          Accelerometer_Test
C:   00000502  A$Accelerometer_Test$2217          Accelerometer_Test
C:   00000504  A$Accelerometer_Test$2218          Accelerometer_Test
C:   00000506  A$Accelerometer_Test$2219          Accelerometer_Test
C:   00000508  A$Accelerometer_Test$2220          Accelerometer_Test
C:   0000050A  A$Accelerometer_Test$2221          Accelerometer_Test
C:   0000050C  A$Accelerometer_Test$2222          Accelerometer_Test
C:   0000050F  A$Accelerometer_Test$2223          Accelerometer_Test
C:   00000511  A$Accelerometer_Test$2224          Accelerometer_Test
C:   00000513  A$Accelerometer_Test$2225          Accelerometer_Test
C:   00000515  A$Accelerometer_Test$2226          Accelerometer_Test
C:   00000517  A$Accelerometer_Test$2227          Accelerometer_Test
C:   00000519  A$Accelerometer_Test$2228          Accelerometer_Test
C:   0000051B  A$Accelerometer_Test$2229          Accelerometer_Test
C:   0000051D  A$Accelerometer_Test$2230          Accelerometer_Test
C:   0000051F  A$Accelerometer_Test$2231          Accelerometer_Test
C:   00000520  A$Accelerometer_Test$2232          Accelerometer_Test
C:   00000523  A$Accelerometer_Test$2235          Accelerometer_Test
C:   00000523  C$i2c.h$267$1$100                  Accelerometer_Test
C:   00000524  A$Accelerometer_Test$2236          Accelerometer_Test
C:   00000526  A$Accelerometer_Test$2240          Accelerometer_Test
C:   00000526  C$i2c.h$272$1$100                  Accelerometer_Test
C:   00000528  A$Accelerometer_Test$2243          Accelerometer_Test
C:   00000528  C$i2c.h$273$1$100                  Accelerometer_Test
C:   0000052A  A$Accelerometer_Test$2244          Accelerometer_Test
C:   0000052C  A$Accelerometer_Test$2245          Accelerometer_Test
C:   0000052D  A$Accelerometer_Test$2246          Accelerometer_Test
C:   00000530  A$Accelerometer_Test$2247          Accelerometer_Test
C:   00000531  A$Accelerometer_Test$2249          Accelerometer_Test
C:   00000532  A$Accelerometer_Test$2250          Accelerometer_Test
C:   00000534  A$Accelerometer_Test$2251          Accelerometer_Test
C:   00000535  A$Accelerometer_Test$2252          Accelerometer_Test
C:   00000536  A$Accelerometer_Test$2253          Accelerometer_Test
C:   00000538  A$Accelerometer_Test$2254          Accelerometer_Test
C:   00000539  A$Accelerometer_Test$2255          Accelerometer_Test
C:   0000053B  A$Accelerometer_Test$2256          Accelerometer_Test
C:   0000053D  A$Accelerometer_Test$2257          Accelerometer_Test
C:   0000053F  A$Accelerometer_Test$2258          Accelerometer_Test
C:   00000541  A$Accelerometer_Test$2259          Accelerometer_Test
C:   00000544  A$Accelerometer_Test$2260          Accelerometer_Test
C:   00000546  A$Accelerometer_Test$2261          Accelerometer_Test
C:   00000548  A$Accelerometer_Test$2262          Accelerometer_Test
C:   0000054A  A$Accelerometer_Test$2263          Accelerometer_Test
C:   0000054C  A$Accelerometer_Test$2264          Accelerometer_Test
C:   0000054E  A$Accelerometer_Test$2265          Accelerometer_Test
C:   00000550  A$Accelerometer_Test$2266          Accelerometer_Test
C:   00000552  A$Accelerometer_Test$2267          Accelerometer_Test
C:   00000553  A$Accelerometer_Test$2268          Accelerometer_Test
C:   00000556  A$Accelerometer_Test$2271          Accelerometer_Test
ASxxxx Linker V03.00 + NoICE + sdld,  page 45.
Hexadecimal  [32-Bits]

Area                                    Addr        Size        Decimal Bytes (Attributes)
--------------------------------        ----        ----        ------- ----- ------------
CSEG                                000000CA    00000EA8 =        3752. bytes (REL,CON,CODE)

      Value  Global                              Global Defined In Module
      -----  --------------------------------   ------------------------
C:   00000556  C$i2c.h$274$1$100                  Accelerometer_Test
C:   00000556  XG$i2c_read_data$0$0               Accelerometer_Test
C:   00000557  A$Accelerometer_Test$2286          Accelerometer_Test
C:   00000557  C$i2c.h$283$1$100                  Accelerometer_Test
C:   00000557  C$i2c.h$287$1$103                  Accelerometer_Test
C:   00000557  G$Accel_Init$0$0                   Accelerometer_Test
C:   00000557  _Accel_Init                        Accelerometer_Test
C:   0000055A  A$Accelerometer_Test$2289          Accelerometer_Test
C:   0000055A  C$i2c.h$289$1$103                  Accelerometer_Test
C:   0000055D  A$Accelerometer_Test$2290          Accelerometer_Test
C:   00000560  A$Accelerometer_Test$2291          Accelerometer_Test
C:   00000563  A$Accelerometer_Test$2292          Accelerometer_Test
C:   00000566  A$Accelerometer_Test$2293          Accelerometer_Test
C:   00000569  A$Accelerometer_Test$2294          Accelerometer_Test
C:   0000056C  A$Accelerometer_Test$2295          Accelerometer_Test
C:   0000056F  A$Accelerometer_Test$2298          Accelerometer_Test
C:   0000056F  C$i2c.h$290$1$103                  Accelerometer_Test
C:   00000572  A$Accelerometer_Test$2301          Accelerometer_Test
C:   00000572  C$i2c.h$292$1$103                  Accelerometer_Test
C:   00000575  A$Accelerometer_Test$2302          Accelerometer_Test
C:   00000578  A$Accelerometer_Test$2303          Accelerometer_Test
C:   0000057B  A$Accelerometer_Test$2304          Accelerometer_Test
C:   0000057E  A$Accelerometer_Test$2305          Accelerometer_Test
C:   00000581  A$Accelerometer_Test$2306          Accelerometer_Test
C:   00000584  A$Accelerometer_Test$2307          Accelerometer_Test
C:   00000587  A$Accelerometer_Test$2310          Accelerometer_Test
C:   00000587  C$i2c.h$293$1$103                  Accelerometer_Test
C:   0000058A  A$Accelerometer_Test$2313          Accelerometer_Test
C:   0000058A  C$i2c.h$294$1$103                  Accelerometer_Test
C:   0000058D  A$Accelerometer_Test$2314          Accelerometer_Test
C:   00000590  A$Accelerometer_Test$2315          Accelerometer_Test
C:   00000593  A$Accelerometer_Test$2316          Accelerometer_Test
C:   00000596  A$Accelerometer_Test$2317          Accelerometer_Test
C:   00000599  A$Accelerometer_Test$2318          Accelerometer_Test
C:   0000059C  A$Accelerometer_Test$2319          Accelerometer_Test
C:   0000059F  A$Accelerometer_Test$2322          Accelerometer_Test
C:   0000059F  C$i2c.h$298$1$103                  Accelerometer_Test
C:   0000059F  XG$Accel_Init$0$0                  Accelerometer_Test
C:   000005A0  A$Accelerometer_Test$2335          Accelerometer_Test
C:   000005A0  C$Accelerometer_Test.c$46$1$103    Accelerometer_Test
C:   000005A0  C$Accelerometer_Test.c$48$1$112    Accelerometer_Test
C:   000005A0  G$main$0$0                         Accelerometer_Test
C:   000005A0  _main                              Accelerometer_Test
C:   000005A3  A$Accelerometer_Test$2338          Accelerometer_Test
C:   000005A3  C$Accelerometer_Test.c$49$1$112    Accelerometer_Test
C:   000005A6  A$Accelerometer_Test$2341          Accelerometer_Test
C:   000005A6  C$Accelerometer_Test.c$50$1$112    Accelerometer_Test
C:   000005A9  A$Accelerometer_Test$2344          Accelerometer_Test
C:   000005A9  C$Accelerometer_Test.c$51$1$112    Accelerometer_Test
C:   000005AC  A$Accelerometer_Test$2347          Accelerometer_Test
C:   000005AC  C$Accelerometer_Test.c$52$1$112    Accelerometer_Test
ASxxxx Linker V03.00 + NoICE + sdld,  page 46.
Hexadecimal  [32-Bits]

Area                                    Addr        Size        Decimal Bytes (Attributes)
--------------------------------        ----        ----        ------- ----- ------------
CSEG                                000000CA    00000EA8 =        3752. bytes (REL,CON,CODE)

      Value  Global                              Global Defined In Module
      -----  --------------------------------   ------------------------
C:   000005AF  A$Accelerometer_Test$2350          Accelerometer_Test
C:   000005AF  C$Accelerometer_Test.c$53$1$112    Accelerometer_Test
C:   000005B2  A$Accelerometer_Test$2353          Accelerometer_Test
C:   000005B2  C$Accelerometer_Test.c$54$1$112    Accelerometer_Test
C:   000005B5  A$Accelerometer_Test$2354          Accelerometer_Test
C:   000005B8  A$Accelerometer_Test$2357          Accelerometer_Test
C:   000005B8  C$Accelerometer_Test.c$55$1$112    Accelerometer_Test
C:   000005BA  A$Accelerometer_Test$2358          Accelerometer_Test
C:   000005BC  A$Accelerometer_Test$2359          Accelerometer_Test
C:   000005BE  A$Accelerometer_Test$2360          Accelerometer_Test
C:   000005C0  A$Accelerometer_Test$2361          Accelerometer_Test
C:   000005C2  A$Accelerometer_Test$2362          Accelerometer_Test
C:   000005C4  A$Accelerometer_Test$2363          Accelerometer_Test
C:   000005C7  A$Accelerometer_Test$2364          Accelerometer_Test
C:   000005C9  A$Accelerometer_Test$2365          Accelerometer_Test
C:   000005CB  A$Accelerometer_Test$2366          Accelerometer_Test
C:   000005CD  A$Accelerometer_Test$2369          Accelerometer_Test
C:   000005CD  C$Accelerometer_Test.c$56$1$112    Accelerometer_Test
C:   000005CE  A$Accelerometer_Test$2370          Accelerometer_Test
C:   000005D0  A$Accelerometer_Test$2371          Accelerometer_Test
C:   000005D2  A$Accelerometer_Test$2375          Accelerometer_Test
C:   000005D2  C$Accelerometer_Test.c$57$1$112    Accelerometer_Test
C:   000005D3  A$Accelerometer_Test$2376          Accelerometer_Test
C:   000005D5  A$Accelerometer_Test$2377          Accelerometer_Test
C:   000005D7  A$Accelerometer_Test$2378          Accelerometer_Test
C:   000005D9  A$Accelerometer_Test$2379          Accelerometer_Test
C:   000005DB  A$Accelerometer_Test$2380          Accelerometer_Test
C:   000005DD  A$Accelerometer_Test$2383          Accelerometer_Test
C:   000005DD  C$Accelerometer_Test.c$58$1$112    Accelerometer_Test
C:   000005DF  A$Accelerometer_Test$2384          Accelerometer_Test
C:   000005E1  A$Accelerometer_Test$2385          Accelerometer_Test
C:   000005E3  A$Accelerometer_Test$2386          Accelerometer_Test
C:   000005E5  A$Accelerometer_Test$2387          Accelerometer_Test
C:   000005E7  A$Accelerometer_Test$2388          Accelerometer_Test
C:   000005E9  A$Accelerometer_Test$2389          Accelerometer_Test
C:   000005EC  A$Accelerometer_Test$2390          Accelerometer_Test
C:   000005EE  A$Accelerometer_Test$2391          Accelerometer_Test
C:   000005F0  A$Accelerometer_Test$2392          Accelerometer_Test
C:   000005F2  A$Accelerometer_Test$2395          Accelerometer_Test
C:   000005F2  C$Accelerometer_Test.c$59$1$112    Accelerometer_Test
C:   000005F4  A$Accelerometer_Test$2396          Accelerometer_Test
C:   000005F6  A$Accelerometer_Test$2397          Accelerometer_Test
C:   000005F8  A$Accelerometer_Test$2398          Accelerometer_Test
C:   000005FA  A$Accelerometer_Test$2399          Accelerometer_Test
C:   000005FC  A$Accelerometer_Test$2400          Accelerometer_Test
C:   000005FE  A$Accelerometer_Test$2401          Accelerometer_Test
C:   00000601  A$Accelerometer_Test$2402          Accelerometer_Test
C:   00000603  A$Accelerometer_Test$2403          Accelerometer_Test
C:   00000605  A$Accelerometer_Test$2404          Accelerometer_Test
C:   00000607  A$Accelerometer_Test$2410          Accelerometer_Test
C:   00000607  C$Accelerometer_Test.c$60$1$112    Accelerometer_Test
ASxxxx Linker V03.00 + NoICE + sdld,  page 47.
Hexadecimal  [32-Bits]

Area                                    Addr        Size        Decimal Bytes (Attributes)
--------------------------------        ----        ----        ------- ----- ------------
CSEG                                000000CA    00000EA8 =        3752. bytes (REL,CON,CODE)

      Value  Global                              Global Defined In Module
      -----  --------------------------------   ------------------------
C:   00000607  C$Accelerometer_Test.c$62$2$113    Accelerometer_Test
C:   00000609  A$Accelerometer_Test$2411          Accelerometer_Test
C:   0000060B  A$Accelerometer_Test$2414          Accelerometer_Test
C:   0000060B  C$Accelerometer_Test.c$64$3$114    Accelerometer_Test
C:   0000060E  A$Accelerometer_Test$2417          Accelerometer_Test
C:   0000060E  C$Accelerometer_Test.c$65$3$114    Accelerometer_Test
C:   00000611  A$Accelerometer_Test$2421          Accelerometer_Test
C:   00000611  C$Accelerometer_Test.c$67$2$113    Accelerometer_Test
C:   00000613  A$Accelerometer_Test$2422          Accelerometer_Test
C:   00000616  A$Accelerometer_Test$2425          Accelerometer_Test
C:   00000616  C$Accelerometer_Test.c$71$3$115    Accelerometer_Test
C:   00000618  A$Accelerometer_Test$2426          Accelerometer_Test
C:   0000061A  A$Accelerometer_Test$2427          Accelerometer_Test
C:   0000061C  A$Accelerometer_Test$2428          Accelerometer_Test
C:   0000061E  A$Accelerometer_Test$2429          Accelerometer_Test
C:   00000620  A$Accelerometer_Test$2430          Accelerometer_Test
C:   00000622  A$Accelerometer_Test$2431          Accelerometer_Test
C:   00000625  A$Accelerometer_Test$2432          Accelerometer_Test
C:   00000627  A$Accelerometer_Test$2433          Accelerometer_Test
C:   00000629  A$Accelerometer_Test$2434          Accelerometer_Test
C:   0000062B  A$Accelerometer_Test$2437          Accelerometer_Test
C:   0000062B  C$Accelerometer_Test.c$72$3$115    Accelerometer_Test
C:   0000062D  A$Accelerometer_Test$2438          Accelerometer_Test
C:   0000062F  A$Accelerometer_Test$2439          Accelerometer_Test
C:   00000631  A$Accelerometer_Test$2440          Accelerometer_Test
C:   00000633  A$Accelerometer_Test$2441          Accelerometer_Test
C:   00000635  A$Accelerometer_Test$2442          Accelerometer_Test
C:   00000637  A$Accelerometer_Test$2443          Accelerometer_Test
C:   00000639  A$Accelerometer_Test$2444          Accelerometer_Test
C:   0000063B  A$Accelerometer_Test$2445          Accelerometer_Test
C:   0000063D  A$Accelerometer_Test$2446          Accelerometer_Test
C:   0000063F  A$Accelerometer_Test$2447          Accelerometer_Test
C:   00000642  A$Accelerometer_Test$2448          Accelerometer_Test
C:   00000644  A$Accelerometer_Test$2449          Accelerometer_Test
C:   00000646  A$Accelerometer_Test$2450          Accelerometer_Test
C:   00000648  A$Accelerometer_Test$2453          Accelerometer_Test
C:   00000648  C$Accelerometer_Test.c$73$3$115    Accelerometer_Test
C:   0000064B  A$Accelerometer_Test$2454          Accelerometer_Test
C:   0000064D  A$Accelerometer_Test$2457          Accelerometer_Test
C:   0000064D  C$Accelerometer_Test.c$78$1$112    Accelerometer_Test
C:   0000064D  XG$main$0$0                        Accelerometer_Test
C:   0000064E  A$Accelerometer_Test$2470          Accelerometer_Test
C:   0000064E  C$Accelerometer_Test.c$83$1$112    Accelerometer_Test
C:   0000064E  C$Accelerometer_Test.c$85$1$117    Accelerometer_Test
C:   0000064E  G$Port_Init$0$0                    Accelerometer_Test
C:   0000064E  _Port_Init                         Accelerometer_Test
C:   00000651  A$Accelerometer_Test$2473          Accelerometer_Test
C:   00000651  C$Accelerometer_Test.c$86$1$117    Accelerometer_Test
C:   00000651  XG$Port_Init$0$0                   Accelerometer_Test
C:   00000652  A$Accelerometer_Test$2486          Accelerometer_Test
C:   00000652  C$Accelerometer_Test.c$90$1$117    Accelerometer_Test
ASxxxx Linker V03.00 + NoICE + sdld,  page 48.
Hexadecimal  [32-Bits]

Area                                    Addr        Size        Decimal Bytes (Attributes)
--------------------------------        ----        ----        ------- ----- ------------
CSEG                                000000CA    00000EA8 =        3752. bytes (REL,CON,CODE)

      Value  Global                              Global Defined In Module
      -----  --------------------------------   ------------------------
C:   00000652  C$Accelerometer_Test.c$92$1$119    Accelerometer_Test
C:   00000652  G$Interrupt_Init$0$0               Accelerometer_Test
C:   00000652  _Interrupt_Init                    Accelerometer_Test
C:   00000655  A$Accelerometer_Test$2489          Accelerometer_Test
C:   00000655  C$Accelerometer_Test.c$93$1$119    Accelerometer_Test
C:   00000658  A$Accelerometer_Test$2492          Accelerometer_Test
C:   00000658  C$Accelerometer_Test.c$94$1$119    Accelerometer_Test
C:   0000065A  A$Accelerometer_Test$2495          Accelerometer_Test
C:   0000065A  C$Accelerometer_Test.c$95$1$119    Accelerometer_Test
C:   0000065A  XG$Interrupt_Init$0$0              Accelerometer_Test
C:   0000065B  A$Accelerometer_Test$2508          Accelerometer_Test
C:   0000065B  C$Accelerometer_Test.c$101$1$121   Accelerometer_Test
C:   0000065B  C$Accelerometer_Test.c$99$1$119    Accelerometer_Test
C:   0000065B  G$PCA_Init$0$0                     Accelerometer_Test
C:   0000065B  _PCA_Init                          Accelerometer_Test
C:   0000065E  A$Accelerometer_Test$2511          Accelerometer_Test
C:   0000065E  C$Accelerometer_Test.c$102$1$121   Accelerometer_Test
C:   00000661  A$Accelerometer_Test$2514          Accelerometer_Test
C:   00000661  C$Accelerometer_Test.c$103$1$121   Accelerometer_Test
C:   00000664  A$Accelerometer_Test$2517          Accelerometer_Test
C:   00000664  C$Accelerometer_Test.c$104$1$121   Accelerometer_Test
C:   00000667  A$Accelerometer_Test$2520          Accelerometer_Test
C:   00000667  C$Accelerometer_Test.c$105$1$121   Accelerometer_Test
C:   00000667  XG$PCA_Init$0$0                    Accelerometer_Test
C:   00000668  A$Accelerometer_Test$2533          Accelerometer_Test
C:   00000668  C$Accelerometer_Test.c$109$1$121   Accelerometer_Test
C:   00000668  C$Accelerometer_Test.c$111$1$123   Accelerometer_Test
C:   00000668  G$SMB0_Init$0$0                    Accelerometer_Test
C:   00000668  _SMB0_Init                         Accelerometer_Test
C:   0000066B  A$Accelerometer_Test$2536          Accelerometer_Test
C:   0000066B  C$Accelerometer_Test.c$112$1$123   Accelerometer_Test
C:   0000066D  A$Accelerometer_Test$2539          Accelerometer_Test
C:   0000066D  C$Accelerometer_Test.c$113$1$123   Accelerometer_Test
C:   0000066D  XG$SMB0_Init$0$0                   Accelerometer_Test
C:   0000066E  A$Accelerometer_Test$2550          Accelerometer_Test
C:   0000066E  C$Accelerometer_Test.c$117$1$123   Accelerometer_Test
C:   0000066E  G$PCA_ISR$0$0                      Accelerometer_Test
C:   0000066E  _PCA_ISR                           Accelerometer_Test
C:   00000670  A$Accelerometer_Test$2551          Accelerometer_Test
C:   00000672  A$Accelerometer_Test$2556          Accelerometer_Test
C:   00000672  C$Accelerometer_Test.c$119$1$125   Accelerometer_Test
C:   00000672  C$Accelerometer_Test.c$121$2$126   Accelerometer_Test
C:   00000675  A$Accelerometer_Test$2557          Accelerometer_Test
C:   00000677  A$Accelerometer_Test$2561          Accelerometer_Test
C:   00000677  C$Accelerometer_Test.c$122$2$126   Accelerometer_Test
C:   00000679  A$Accelerometer_Test$2562          Accelerometer_Test
C:   0000067A  A$Accelerometer_Test$2563          Accelerometer_Test
C:   0000067D  A$Accelerometer_Test$2564          Accelerometer_Test
C:   0000067F  A$Accelerometer_Test$2568          Accelerometer_Test
C:   0000067F  C$Accelerometer_Test.c$123$2$126   Accelerometer_Test
C:   00000682  A$Accelerometer_Test$2569          Accelerometer_Test
ASxxxx Linker V03.00 + NoICE + sdld,  page 49.
Hexadecimal  [32-Bits]

Area                                    Addr        Size        Decimal Bytes (Attributes)
--------------------------------        ----        ----        ------- ----- ------------
CSEG                                000000CA    00000EA8 =        3752. bytes (REL,CON,CODE)

      Value  Global                              Global Defined In Module
      -----  --------------------------------   ------------------------
C:   00000685  A$Accelerometer_Test$2572          Accelerometer_Test
C:   00000685  C$Accelerometer_Test.c$124$2$126   Accelerometer_Test
C:   00000686  A$Accelerometer_Test$2573          Accelerometer_Test
C:   00000688  A$Accelerometer_Test$2574          Accelerometer_Test
C:   0000068A  A$Accelerometer_Test$2575          Accelerometer_Test
C:   0000068B  A$Accelerometer_Test$2576          Accelerometer_Test
C:   0000068D  A$Accelerometer_Test$2577          Accelerometer_Test
C:   0000068F  A$Accelerometer_Test$2580          Accelerometer_Test
C:   0000068F  C$Accelerometer_Test.c$127$3$127   Accelerometer_Test
C:   00000691  A$Accelerometer_Test$2581          Accelerometer_Test
C:   00000692  A$Accelerometer_Test$2582          Accelerometer_Test
C:   00000695  A$Accelerometer_Test$2583          Accelerometer_Test
C:   00000697  A$Accelerometer_Test$2588          Accelerometer_Test
C:   00000697  C$Accelerometer_Test.c$129$2$126   Accelerometer_Test
C:   00000699  A$Accelerometer_Test$2591          Accelerometer_Test
C:   00000699  C$Accelerometer_Test.c$130$2$126   Accelerometer_Test
C:   0000069B  A$Accelerometer_Test$2594          Accelerometer_Test
C:   0000069B  C$Accelerometer_Test.c$131$2$126   Accelerometer_Test
C:   0000069D  A$Accelerometer_Test$2595          Accelerometer_Test
C:   0000069F  A$Accelerometer_Test$2596          Accelerometer_Test
C:   000006A1  A$Accelerometer_Test$2599          Accelerometer_Test
C:   000006A1  C$Accelerometer_Test.c$133$3$128   Accelerometer_Test
C:   000006A4  A$Accelerometer_Test$2602          Accelerometer_Test
C:   000006A4  C$Accelerometer_Test.c$134$3$128   Accelerometer_Test
C:   000006A7  A$Accelerometer_Test$2603          Accelerometer_Test
C:   000006A9  A$Accelerometer_Test$2607          Accelerometer_Test
C:   000006A9  C$Accelerometer_Test.c$137$1$125   Accelerometer_Test
C:   000006AC  A$Accelerometer_Test$2609          Accelerometer_Test
C:   000006AE  A$Accelerometer_Test$2610          Accelerometer_Test
C:   000006B0  A$Accelerometer_Test$2613          Accelerometer_Test
C:   000006B0  C$Accelerometer_Test.c$138$1$125   Accelerometer_Test
C:   000006B0  XG$PCA_ISR$0$0                     Accelerometer_Test
C:   000006B1  A$Accelerometer_Test$2630          Accelerometer_Test
C:   000006B1  C$Accelerometer_Test.c$148$1$125   Accelerometer_Test
C:   000006B1  C$Accelerometer_Test.c$152$1$130   Accelerometer_Test
C:   000006B1  G$accelerometer_adjustment$0$0     Accelerometer_Test
C:   000006B1  _accelerometer_adjustment          Accelerometer_Test
C:   000006B4  A$Accelerometer_Test$2633          Accelerometer_Test
C:   000006B4  C$Accelerometer_Test.c$153$1$130   Accelerometer_Test
C:   000006B7  A$Accelerometer_Test$2636          Accelerometer_Test
C:   000006B7  C$Accelerometer_Test.c$154$1$130   Accelerometer_Test
C:   000006B7  XG$accelerometer_adjustment$0$0    Accelerometer_Test
C:   000006B8  A$Accelerometer_Test$2652          Accelerometer_Test
C:   000006B8  C$Accelerometer_Test.c$156$1$130   Accelerometer_Test
C:   000006B8  C$Accelerometer_Test.c$160$1$132   Accelerometer_Test
C:   000006B8  G$status_reg_a$0$0                 Accelerometer_Test
C:   000006B8  _status_reg_a                      Accelerometer_Test
C:   000006BB  A$Accelerometer_Test$2653          Accelerometer_Test
C:   000006BE  A$Accelerometer_Test$2654          Accelerometer_Test
C:   000006C1  A$Accelerometer_Test$2655          Accelerometer_Test
C:   000006C4  A$Accelerometer_Test$2656          Accelerometer_Test
ASxxxx Linker V03.00 + NoICE + sdld,  page 50.
Hexadecimal  [32-Bits]

Area                                    Addr        Size        Decimal Bytes (Attributes)
--------------------------------        ----        ----        ------- ----- ------------
CSEG                                000000CA    00000EA8 =        3752. bytes (REL,CON,CODE)

      Value  Global                              Global Defined In Module
      -----  --------------------------------   ------------------------
C:   000006C7  A$Accelerometer_Test$2657          Accelerometer_Test
C:   000006CA  A$Accelerometer_Test$2658          Accelerometer_Test
C:   000006CD  A$Accelerometer_Test$2661          Accelerometer_Test
C:   000006CD  C$Accelerometer_Test.c$161$1$132   Accelerometer_Test
C:   000006CF  A$Accelerometer_Test$2662          Accelerometer_Test
C:   000006D1  A$Accelerometer_Test$2663          Accelerometer_Test
C:   000006D3  A$Accelerometer_Test$2664          Accelerometer_Test
C:   000006D5  A$Accelerometer_Test$2667          Accelerometer_Test
C:   000006D5  C$Accelerometer_Test.c$164$2$133   Accelerometer_Test
C:   000006D8  A$Accelerometer_Test$2668          Accelerometer_Test
C:   000006DA  A$Accelerometer_Test$2672          Accelerometer_Test
C:   000006DA  C$Accelerometer_Test.c$170$2$134   Accelerometer_Test
C:   000006DD  A$Accelerometer_Test$2676          Accelerometer_Test
C:   000006DD  C$Accelerometer_Test.c$173$1$132   Accelerometer_Test
C:   000006DD  XG$status_reg_a$0$0                Accelerometer_Test
C:   000006DE  A$Accelerometer_Test$2696          Accelerometer_Test
C:   000006DE  C$Accelerometer_Test.c$175$1$132   Accelerometer_Test
C:   000006DE  C$Accelerometer_Test.c$178$1$132   Accelerometer_Test
C:   000006DE  G$read_accel$0$0                   Accelerometer_Test
C:   000006DE  _read_accel                        Accelerometer_Test
C:   000006E1  A$Accelerometer_Test$2703          Accelerometer_Test
C:   000006E1  C$Accelerometer_Test.c$184$1$136   Accelerometer_Test
C:   000006E1  C$Accelerometer_Test.c$185$1$136   Accelerometer_Test
C:   000006E1  C$Accelerometer_Test.c$187$1$136   Accelerometer_Test
C:   000006E2  A$Accelerometer_Test$2704          Accelerometer_Test
C:   000006E4  A$Accelerometer_Test$2705          Accelerometer_Test
C:   000006E5  A$Accelerometer_Test$2706          Accelerometer_Test
C:   000006E7  A$Accelerometer_Test$2707          Accelerometer_Test
C:   000006E9  A$Accelerometer_Test$2710          Accelerometer_Test
C:   000006E9  C$Accelerometer_Test.c$188$1$136   Accelerometer_Test
C:   000006EB  A$Accelerometer_Test$2711          Accelerometer_Test
C:   000006ED  A$Accelerometer_Test$2714          Accelerometer_Test
C:   000006EF  A$Accelerometer_Test$2715          Accelerometer_Test
C:   000006F1  A$Accelerometer_Test$2716          Accelerometer_Test
C:   000006F3  A$Accelerometer_Test$2720          Accelerometer_Test
C:   000006F3  C$Accelerometer_Test.c$196$2$137   Accelerometer_Test
C:   000006F5  A$Accelerometer_Test$2721          Accelerometer_Test
C:   000006F7  A$Accelerometer_Test$2722          Accelerometer_Test
C:   000006F9  A$Accelerometer_Test$2723          Accelerometer_Test
C:   000006FC  A$Accelerometer_Test$2724          Accelerometer_Test
C:   000006FE  A$Accelerometer_Test$2725          Accelerometer_Test
C:   00000700  A$Accelerometer_Test$2726          Accelerometer_Test
C:   00000702  A$Accelerometer_Test$2727          Accelerometer_Test
C:   00000704  A$Accelerometer_Test$2728          Accelerometer_Test
C:   00000706  A$Accelerometer_Test$2729          Accelerometer_Test
C:   00000709  A$Accelerometer_Test$2733          Accelerometer_Test
C:   00000709  C$Accelerometer_Test.c$200$3$138   Accelerometer_Test
C:   0000070C  A$Accelerometer_Test$2734          Accelerometer_Test
C:   0000070F  A$Accelerometer_Test$2735          Accelerometer_Test
C:   00000712  A$Accelerometer_Test$2736          Accelerometer_Test
C:   00000715  A$Accelerometer_Test$2737          Accelerometer_Test
ASxxxx Linker V03.00 + NoICE + sdld,  page 51.
Hexadecimal  [32-Bits]

Area                                    Addr        Size        Decimal Bytes (Attributes)
--------------------------------        ----        ----        ------- ----- ------------
CSEG                                000000CA    00000EA8 =        3752. bytes (REL,CON,CODE)

      Value  Global                              Global Defined In Module
      -----  --------------------------------   ------------------------
C:   00000718  A$Accelerometer_Test$2738          Accelerometer_Test
C:   0000071B  A$Accelerometer_Test$2739          Accelerometer_Test
C:   0000071D  A$Accelerometer_Test$2740          Accelerometer_Test
C:   0000071F  A$Accelerometer_Test$2741          Accelerometer_Test
C:   00000721  A$Accelerometer_Test$2742          Accelerometer_Test
C:   00000724  A$Accelerometer_Test$2743          Accelerometer_Test
C:   00000726  A$Accelerometer_Test$2744          Accelerometer_Test
C:   00000728  A$Accelerometer_Test$2745          Accelerometer_Test
C:   0000072A  A$Accelerometer_Test$2748          Accelerometer_Test
C:   0000072A  C$Accelerometer_Test.c$205$3$138   Accelerometer_Test
C:   0000072C  A$Accelerometer_Test$2749          Accelerometer_Test
C:   0000072E  A$Accelerometer_Test$2750          Accelerometer_Test
C:   0000072F  A$Accelerometer_Test$2751          Accelerometer_Test
C:   00000731  A$Accelerometer_Test$2752          Accelerometer_Test
C:   00000733  A$Accelerometer_Test$2753          Accelerometer_Test
C:   00000735  A$Accelerometer_Test$2754          Accelerometer_Test
C:   00000737  A$Accelerometer_Test$2755          Accelerometer_Test
C:   00000738  A$Accelerometer_Test$2756          Accelerometer_Test
C:   00000739  A$Accelerometer_Test$2757          Accelerometer_Test
C:   0000073B  A$Accelerometer_Test$2758          Accelerometer_Test
C:   0000073C  A$Accelerometer_Test$2759          Accelerometer_Test
C:   0000073E  A$Accelerometer_Test$2760          Accelerometer_Test
C:   00000740  A$Accelerometer_Test$2761          Accelerometer_Test
C:   00000742  A$Accelerometer_Test$2762          Accelerometer_Test
C:   00000744  A$Accelerometer_Test$2763          Accelerometer_Test
C:   00000746  A$Accelerometer_Test$2764          Accelerometer_Test
C:   00000748  A$Accelerometer_Test$2765          Accelerometer_Test
C:   0000074A  A$Accelerometer_Test$2766          Accelerometer_Test
C:   0000074D  A$Accelerometer_Test$2767          Accelerometer_Test
C:   0000074F  A$Accelerometer_Test$2769          Accelerometer_Test
C:   00000751  A$Accelerometer_Test$2772          Accelerometer_Test
C:   00000751  C$Accelerometer_Test.c$206$3$138   Accelerometer_Test
C:   00000753  A$Accelerometer_Test$2773          Accelerometer_Test
C:   00000755  A$Accelerometer_Test$2774          Accelerometer_Test
C:   00000756  A$Accelerometer_Test$2775          Accelerometer_Test
C:   00000758  A$Accelerometer_Test$2776          Accelerometer_Test
C:   0000075A  A$Accelerometer_Test$2777          Accelerometer_Test
C:   0000075C  A$Accelerometer_Test$2778          Accelerometer_Test
C:   0000075E  A$Accelerometer_Test$2779          Accelerometer_Test
C:   0000075F  A$Accelerometer_Test$2780          Accelerometer_Test
C:   00000760  A$Accelerometer_Test$2781          Accelerometer_Test
C:   00000762  A$Accelerometer_Test$2782          Accelerometer_Test
C:   00000763  A$Accelerometer_Test$2783          Accelerometer_Test
C:   00000765  A$Accelerometer_Test$2784          Accelerometer_Test
C:   00000767  A$Accelerometer_Test$2785          Accelerometer_Test
C:   00000769  A$Accelerometer_Test$2786          Accelerometer_Test
C:   0000076B  A$Accelerometer_Test$2787          Accelerometer_Test
C:   0000076D  A$Accelerometer_Test$2788          Accelerometer_Test
C:   0000076F  A$Accelerometer_Test$2789          Accelerometer_Test
C:   00000771  A$Accelerometer_Test$2790          Accelerometer_Test
C:   00000774  A$Accelerometer_Test$2791          Accelerometer_Test
ASxxxx Linker V03.00 + NoICE + sdld,  page 52.
Hexadecimal  [32-Bits]

Area                                    Addr        Size        Decimal Bytes (Attributes)
--------------------------------        ----        ----        ------- ----- ------------
CSEG                                000000CA    00000EA8 =        3752. bytes (REL,CON,CODE)

      Value  Global                              Global Defined In Module
      -----  --------------------------------   ------------------------
C:   00000776  A$Accelerometer_Test$2793          Accelerometer_Test
C:   00000778  A$Accelerometer_Test$2796          Accelerometer_Test
C:   00000778  C$Accelerometer_Test.c$215$3$138   Accelerometer_Test
C:   0000077A  A$Accelerometer_Test$2797          Accelerometer_Test
C:   0000077C  A$Accelerometer_Test$2798          Accelerometer_Test
C:   0000077D  A$Accelerometer_Test$2799          Accelerometer_Test
C:   0000077F  A$Accelerometer_Test$2800          Accelerometer_Test
C:   00000781  A$Accelerometer_Test$2801          Accelerometer_Test
C:   00000782  A$Accelerometer_Test$2802          Accelerometer_Test
C:   00000784  A$Accelerometer_Test$2803          Accelerometer_Test
C:   00000786  A$Accelerometer_Test$2806          Accelerometer_Test
C:   00000786  C$Accelerometer_Test.c$216$3$138   Accelerometer_Test
C:   00000788  A$Accelerometer_Test$2807          Accelerometer_Test
C:   0000078A  A$Accelerometer_Test$2808          Accelerometer_Test
C:   0000078B  A$Accelerometer_Test$2809          Accelerometer_Test
C:   0000078D  A$Accelerometer_Test$2810          Accelerometer_Test
C:   0000078F  A$Accelerometer_Test$2811          Accelerometer_Test
C:   00000790  A$Accelerometer_Test$2812          Accelerometer_Test
C:   00000792  A$Accelerometer_Test$2813          Accelerometer_Test
C:   00000794  A$Accelerometer_Test$2816          Accelerometer_Test
C:   00000794  C$Accelerometer_Test.c$217$3$138   Accelerometer_Test
C:   00000795  A$Accelerometer_Test$2820          Accelerometer_Test
C:   00000795  C$Accelerometer_Test.c$190$1$136   Accelerometer_Test
C:   00000796  A$Accelerometer_Test$2821          Accelerometer_Test
C:   00000799  A$Accelerometer_Test$2822          Accelerometer_Test
C:   0000079A  A$Accelerometer_Test$2824          Accelerometer_Test
C:   0000079B  A$Accelerometer_Test$2825          Accelerometer_Test
C:   0000079C  A$Accelerometer_Test$2826          Accelerometer_Test
C:   0000079E  A$Accelerometer_Test$2827          Accelerometer_Test
C:   0000079F  A$Accelerometer_Test$2828          Accelerometer_Test
C:   000007A1  A$Accelerometer_Test$2829          Accelerometer_Test
C:   000007A3  A$Accelerometer_Test$2830          Accelerometer_Test
C:   000007A5  A$Accelerometer_Test$2831          Accelerometer_Test
C:   000007A8  A$Accelerometer_Test$2835          Accelerometer_Test
C:   000007A8  C$Accelerometer_Test.c$236$1$136   Accelerometer_Test
C:   000007AA  A$Accelerometer_Test$2836          Accelerometer_Test
C:   000007AB  A$Accelerometer_Test$2837          Accelerometer_Test
C:   000007AD  A$Accelerometer_Test$2840          Accelerometer_Test
C:   000007AD  C$Accelerometer_Test.c$238$2$139   Accelerometer_Test
C:   000007AF  A$Accelerometer_Test$2841          Accelerometer_Test
C:   000007B1  A$Accelerometer_Test$2842          Accelerometer_Test
C:   000007B3  A$Accelerometer_Test$2843          Accelerometer_Test
C:   000007B6  A$Accelerometer_Test$2844          Accelerometer_Test
C:   000007B9  A$Accelerometer_Test$2845          Accelerometer_Test
C:   000007BB  A$Accelerometer_Test$2846          Accelerometer_Test
C:   000007BD  A$Accelerometer_Test$2847          Accelerometer_Test
C:   000007C0  A$Accelerometer_Test$2848          Accelerometer_Test
C:   000007C3  A$Accelerometer_Test$2849          Accelerometer_Test
C:   000007C6  A$Accelerometer_Test$2850          Accelerometer_Test
C:   000007C8  A$Accelerometer_Test$2851          Accelerometer_Test
C:   000007CA  A$Accelerometer_Test$2854          Accelerometer_Test
ASxxxx Linker V03.00 + NoICE + sdld,  page 53.
Hexadecimal  [32-Bits]

Area                                    Addr        Size        Decimal Bytes (Attributes)
--------------------------------        ----        ----        ------- ----- ------------
CSEG                                000000CA    00000EA8 =        3752. bytes (REL,CON,CODE)

      Value  Global                              Global Defined In Module
      -----  --------------------------------   ------------------------
C:   000007CA  C$Accelerometer_Test.c$239$1$136   Accelerometer_Test
C:   000007CC  A$Accelerometer_Test$2855          Accelerometer_Test
C:   000007CE  A$Accelerometer_Test$2856          Accelerometer_Test
C:   000007D1  A$Accelerometer_Test$2857          Accelerometer_Test
C:   000007D4  A$Accelerometer_Test$2858          Accelerometer_Test
C:   000007D7  A$Accelerometer_Test$2859          Accelerometer_Test
C:   000007DA  A$Accelerometer_Test$2860          Accelerometer_Test
C:   000007DD  A$Accelerometer_Test$2864          Accelerometer_Test
C:   000007DD  C$Accelerometer_Test.c$241$1$136   Accelerometer_Test
C:   000007DD  XG$read_accel$0$0                  Accelerometer_Test
C:   000007DE  __divuint                          _divuint
C:   00000807  __gptrput                          _gptrput
C:   00000822  __mulint                           _mulint
C:   00000822  __mulint_dummy                     _mulint
C:   000008AF  _vsprintf                          sprintf
C:   000008EC  _sprintf                           sprintf
C:   00000945  _vprintf                           vprintf
C:   0000095E  _printf                            vprintf
C:   00000A30  __print_format                     printf_large
C:   00000F3A  _strlen                            _strlen
C:   00000F52  __gptrget                          _gptrget
C:   00000F6E  __sdcc_external_startup            _startup
ASxxxx Linker V03.00 + NoICE + sdld,  page 54.
Hexadecimal  [32-Bits]

Area                                    Addr        Size        Decimal Bytes (Attributes)
--------------------------------        ----        ----        ------- ----- ------------
CONST                               00000F72    00000096 =         150. bytes (REL,CON,CODE)

      Value  Global                              Global Defined In Module
      -----  --------------------------------   ------------------------
C:   00000F72  FAccelerometer_Test$__str_0$0$0    Accelerometer_Test
C:   00000F88  FAccelerometer_Test$__str_1$0$0    Accelerometer_Test
C:   00000F98  FAccelerometer_Test$__str_2$0$0    Accelerometer_Test
C:   00000F9B  FAccelerometer_Test$__str_3$0$0    Accelerometer_Test
C:   00000FA4  FAccelerometer_Test$__str_4$0$0    Accelerometer_Test
C:   00000FCF  FAccelerometer_Test$__str_5$0$0    Accelerometer_Test
C:   00000FE6  FAccelerometer_Test$__str_6$0$0    Accelerometer_Test
C:   00000FF1  FAccelerometer_Test$__str_7$0$0    Accelerometer_Test

ASxxxx Linker V03.00 + NoICE + sdld,  page 55.

Files Linked                              [ module(s) ]

C:\Users\rutmas\Documents\LITEC\LITEC\Lab 5\Lab 5\Accelerometer Testing\Accelerometer_Test.rel
                                          [  ]


Libraries Linked                          [ object file ]

C:\Program Files (x86)\SDCC\bin\..\lib\small/libint.lib
                                          [ _divuint.rel ]
C:\Program Files (x86)\SDCC\bin\..\lib\small/mcs51.lib
                                          [ crtclear.rel ]
C:\Program Files (x86)\SDCC\bin\..\lib\small/mcs51.lib
                                          [ crtxinit.rel ]
C:\Program Files (x86)\SDCC\bin\..\lib\small/libsdcc.lib
                                          [ _gptrput.rel ]
C:\Program Files (x86)\SDCC\bin\..\lib\small/libint.lib
                                          [ _mulint.rel ]
C:\Program Files (x86)\SDCC\bin\..\lib\small/libsdcc.lib
                                          [ sprintf.rel ]
C:\Program Files (x86)\SDCC\bin\..\lib\small/mcs51.lib
                                          [ crtxclear.rel ]
C:\Program Files (x86)\SDCC\bin\..\lib\small/libsdcc.lib
                                          [ _bp.rel ]
C:\Program Files (x86)\SDCC\bin\..\lib\small/libsdcc.lib
                                          [ vprintf.rel ]
C:\Program Files (x86)\SDCC\bin\..\lib\small/libsdcc.lib
                                          [ printf_large.rel ]
C:\Program Files (x86)\SDCC\bin\..\lib\small/libsdcc.lib
                                          [ _strlen.rel ]
C:\Program Files (x86)\SDCC\bin\..\lib\small/mcs51.lib
                                          [ crtstart.rel ]
C:\Program Files (x86)\SDCC\bin\..\lib\small/libsdcc.lib
                                          [ _gptrget.rel ]
C:\Program Files (x86)\SDCC\bin\..\lib\small/libsdcc.lib
                                          [ _startup.rel ]

ASxxxx Linker V03.00 + NoICE + sdld,  page 56.

User Base Address Definitions

HOME = 0x0000
XSEG = 0x0001
PSEG = 0x0001
ISEG = 0x0000
BSEG = 0x0000

